(lp0
(lp1
F0.0
aF0.0
aF0.0
aF0.0
aF0.0
aa(lp2
F0.0
aF0.0
aF0.0
aF0.0
aF0.0
aa(lp3
F0.0
aF0.0
aF0.0
aF0.0
aF0.0
aa(lp4
F0.0
aF0.0
aF0.0
aF0.0
aF0.0
aa(lp5
F0.0
aF0.0
aF0.0
aF0.0
aF0.0
aa(lp6
F0.0
aF0.0
aF0.0
aF0.0
aF0.0
aa(lp7
F0.0
aF0.0
aF0.0
aF0.0
aF0.0
aa(lp8
F0.0
aF0.0
aF0.0
aF0.0
aF0.0
aa(lp9
F0.0
aF0.0
aF0.0
aF0.0
aF0.0
aa(lp10
F0.0
aF0.0
aF0.0
aF0.0
aF0.0
aa(lp11
F0.0
aF0.0
aF0.0
aF0.0
aF0.0
aa(lp12
F0.0
aF0.0
aF0.0
aF0.0
aF0.0
aa(lp13
F0.0
aF0.0
aF0.0
aF0.0
aF0.0
aa(lp14
F0.0
aF0.0
aF0.0
aF0.0
aF0.0
aa(lp15
F0.0
aF0.0
aF0.0
aF0.0
aF0.0
aa(lp16
F0.0
aF0.0
aF0.0
aF0.0
aF0.0
aa(lp17
F0.0
aF0.0
aF0.0
aF0.0
aF0.0
aa(lp18
F0.0
aF0.0
aF0.0
aF0.0
aF0.0
aa(lp19
F0.0
aF0.0
aF0.0
aF0.0
aF0.0
aa(lp20
F0.0
aF0.0
aF0.0
aF0.0
aF0.0
aa(lp21
F0.0
aF0.0
aF0.0
aF0.0
aF0.0
aa(lp22
F0.0
aF0.0
aF0.0
aF0.0
aF0.0
aa(lp23
F0.0
aF0.0
aF0.0
aF0.0
aF0.0
aa(lp24
F0.0
aF0.0
aF0.0
aF0.0
aF0.0
aa(lp25
F0.0
aF0.0
aF0.0
aF0.0
aF0.0
aa(lp26
F0.0
aF0.0
aF0.0
aF0.0
aF0.0
aa(lp27
F0.0
aF0.0
aF0.0
aF0.0
aF0.0
aa(lp28
F0.0
aF0.0
aF0.0
aF0.0
aF0.0
aa(lp29
F0.0
aF0.0
aF0.0
aF0.0
aF0.0
aa(lp30
F0.0
aF0.0
aF0.0
aF0.0
aF0.0
aa(lp31
F0.0
aF0.0
aF0.0
aF0.0
aF0.0
aa(lp32
F0.0
aF0.0
aF0.0
aF0.0
aF0.0
aa(lp33
F0.0
aF0.0
aF0.0
aF0.0
aF0.0
aa(lp34
F-14.639508269025061
aF-14.73340189703221
aF-14.646788367850236
aF-14.596082376232582
aF0.0
aa(lp35
F-14.620820144471836
aF-14.72532781318449
aF-14.646489119514216
aF-14.58846733013322
aF0.0
aa(lp36
F-14.35702110365054
aF-14.42181604617633
aF-14.426046214138466
aF-14.479829755488026
aF0.0
aa(lp37
F-13.810390015893814
aF-13.594498978121866
aF-13.609483832309662
aF-13.703257954555857
aF0.0
aa(lp38
F-13.024689943325345
aF-12.989341104013757
aF-13.040507951165559
aF-12.958681628170883
aF0.0
aa(lp39
F-12.07651840751527
aF-12.026343374428567
aF-11.990438619807886
aF-12.097538348016634
aF0.0
aa(lp40
F-10.778227890384727
aF-10.74818795920673
aF-10.752878814791906
aF-10.80034744205179
aF0.0
aa(lp41
F-10.536581559077405
aF-10.546034280744506
aF-10.45385624145251
aF-10.559700541663647
aF0.0
aa(lp42
F-9.609406342590407
aF-9.656520985278174
aF-9.757579533205769
aF-9.735311297011428
aF0.0
aa(lp43
F-9.181954399164907
aF-9.332549887095093
aF-9.192453624293089
aF-9.204332191897455
aF0.0
aa(lp44
F-8.529192817662784
aF-8.593450645957457
aF-8.629542506321545
aF-8.595808213239772
aF0.0
aa(lp45
F-8.012657571607457
aF-8.184963765013377
aF-8.066011931488099
aF-8.14726817197305
aF0.0
aa(lp46
F-7.905179372784314
aF-7.996918700703568
aF-7.901933039416935
aF-7.917747972285939
aF0.0
aa(lp47
F-7.900149179775075
aF-7.900543898616625
aF-7.854546312445859
aF-7.829598958479038
aF0.0
aa(lp48
F-7.8219212435876555
aF-7.783555501936882
aF-7.821079720201411
aF-7.852064615858231
aF0.0
aa(lp49
F0.0
aF0.0
aF0.0
aF0.0
aF0.0
aa(lp50
F-65.04975931331894
aF-64.94350283601123
aF-65.08116695427981
aF-64.94239608842969
aF0.0
aa(lp51
F-65.38464042700214
aF-65.27608849305851
aF-65.3430228869634
aF-65.26201276423198
aF0.0
aa(lp52
F-65.27327807638954
aF-65.34433326746101
aF-65.42096310964722
aF-65.32104797993227
aF0.0
aa(lp53
F-65.69565908040845
aF-65.65278664998004
aF-65.58152680703141
aF-65.5922532793762
aF0.0
aa(lp54
F-65.51800211018634
aF-65.5520226247819
aF-65.52607470027745
aF-65.64822608484111
aF0.0
aa(lp55
F-65.28625800862636
aF-65.16413128965235
aF-65.39667055559958
aF-65.18567289290574
aF0.0
aa(lp56
F-65.2250812462292
aF-65.16034223936786
aF-65.19810396868543
aF-65.18841624409158
aF0.0
aa(lp57
F-64.61466569087783
aF-64.56137261209952
aF-64.59047618517337
aF-64.43646660127322
aF0.0
aa(lp58
F-64.0590449249452
aF-63.97363417584819
aF-63.9090541324165
aF-64.03873790090546
aF0.0
aa(lp59
F-64.1671403238942
aF-64.22151101626585
aF-64.06967168024917
aF-64.07257408247158
aF0.0
aa(lp60
F-64.11257354066035
aF-64.14981250809373
aF-64.12475760181535
aF-64.15037550095123
aF0.0
aa(lp61
F-64.12221859567103
aF-64.10775939782701
aF-64.04602098039355
aF-64.1091007020936
aF0.0
aa(lp62
F-64.1569964576474
aF-64.31280071786064
aF-64.25448693846948
aF-64.11083782432178
aF0.0
aa(lp63
F-64.60732630212755
aF-64.4642735065931
aF-64.48716425762716
aF-64.55085579751483
aF0.0
aa(lp64
F0.0
aF0.0
aF0.0
aF0.0
aF0.0
aa(lp65
F0.0
aF0.0
aF0.0
aF0.0
aF0.0
aa(lp66
F-14.663012868545138
aF-14.690874049117173
aF-14.644659294452818
aF-14.827512654665092
aF0.0
aa(lp67
F-14.60172974983093
aF-14.646313628075413
aF-14.678001681293907
aF-14.643725499002304
aF0.0
aa(lp68
F-14.532518762641365
aF-14.53241959157581
aF-14.47873006726626
aF-14.43007028425003
aF0.0
aa(lp69
F-13.97544371283084
aF-13.87036175205768
aF-13.945926595007101
aF-14.01966595189893
aF0.0
aa(lp70
F-13.155219815581415
aF-13.21891522969045
aF-13.193023811948128
aF-13.30490700745965
aF0.0
aa(lp71
F-12.390471079074802
aF-12.40223484729225
aF-12.321456648653738
aF-12.293432680822459
aF0.0
aa(lp72
F-11.219285414627812
aF-11.159986264714526
aF-11.14865984619495
aF-11.339533895439166
aF0.0
aa(lp73
F-10.87275144781443
aF-10.782688915453825
aF-10.89824216549565
aF-10.829012865250254
aF0.0
aa(lp74
F-10.059312122896753
aF-9.99663867578569
aF-9.902588491734393
aF-9.951498369071945
aF0.0
aa(lp75
F-9.026703923060404
aF-9.053894845608589
aF-9.207526190991421
aF-9.144980003931307
aF0.0
aa(lp76
F-8.49030127318618
aF-8.417597448210403
aF-8.50391136673202
aF-8.388796167284704
aF0.0
aa(lp77
F-7.876624044201564
aF-7.9836803236688425
aF-7.8968876597415125
aF-7.95170937208092
aF0.0
aa(lp78
F-7.81262654712174
aF-7.828581818095343
aF-7.8475740484717305
aF-7.793307048736876
aF0.0
aa(lp79
F-7.827053147900605
aF-7.754453553153755
aF-7.745759248401663
aF-7.7815441009993656
aF0.0
aa(lp80
F-7.758803282198426
aF-7.711228251596558
aF-7.711950831617191
aF-7.753442243160803
aF0.0
aa(lp81
F0.0
aF0.0
aF0.0
aF0.0
aF0.0
aa(lp82
F-65.07575270581295
aF-65.1616413494781
aF-65.06574992714539
aF-65.19337274637189
aF0.0
aa(lp83
F-65.49658093736412
aF-65.46531750623836
aF-65.51363914251847
aF-65.42334424487049
aF0.0
aa(lp84
F-65.5845752140659
aF-65.55914148946783
aF-65.53333199850496
aF-65.61104831004222
aF0.0
aa(lp85
F-65.63508720973155
aF-65.61324723259683
aF-65.58071946640204
aF-65.6494477696556
aF0.0
aa(lp86
F-65.58154790152122
aF-65.48132132487885
aF-65.48911598836594
aF-65.54454271911672
aF0.0
aa(lp87
F-65.30481144512522
aF-65.34697611990943
aF-65.30076805672627
aF-65.38624345141386
aF0.0
aa(lp88
F-65.30968762832777
aF-65.3862073596092
aF-65.31131390103525
aF-65.33239053911711
aF0.0
aa(lp89
F-65.19776631318148
aF-65.14818393004359
aF-65.1503563239482
aF-65.2500700264993
aF0.0
aa(lp90
F-64.64744442032817
aF-64.70574104219303
aF-64.65067100517058
aF-64.76707967755934
aF0.0
aa(lp91
F-64.62958612789356
aF-64.67440482336588
aF-64.60689527721578
aF-64.6399226149066
aF0.0
aa(lp92
F-64.42974150415799
aF-64.4424390029585
aF-64.49845604980318
aF-64.517005970937
aF0.0
aa(lp93
F-64.32447269476498
aF-64.42639153563833
aF-64.3417429103801
aF-64.34122282325382
aF0.0
aa(lp94
F-64.27486780126307
aF-64.29690570949158
aF-64.42112574929223
aF-64.36140897465647
aF0.0
aa(lp95
F-64.4837660992247
aF-64.43118714722385
aF-64.45858580998215
aF-64.52492025776121
aF0.0
aa(lp96
F0.0
aF0.0
aF0.0
aF0.0
aF0.0
aa(lp97
F0.0
aF0.0
aF0.0
aF0.0
aF0.0
aa(lp98
F-14.695880273778094
aF-14.716970447858003
aF-14.789825026125818
aF-14.818044627325763
aF0.0
aa(lp99
F-14.71468991882014
aF-14.710068023768363
aF-14.722279604472588
aF-14.72128560362841
aF0.0
aa(lp100
F-14.540778296074706
aF-14.587306248842907
aF-14.580199075535297
aF-14.523073551075697
aF0.0
aa(lp101
F-13.812442077186688
aF-13.964932834646277
aF-13.854857899573918
aF-13.937712551827058
aF0.0
aa(lp102
F-13.34559123158466
aF-13.263465789947228
aF-13.249996050580378
aF-13.256447844634796
aF0.0
aa(lp103
F-12.608804486983747
aF-12.593652810841926
aF-12.585628156455675
aF-12.649358517625764
aF0.0
aa(lp104
F-11.537785970804217
aF-11.70707638245439
aF-11.574018098586896
aF-11.635820384603223
aF0.0
aa(lp105
F-11.121889214561797
aF-11.151844588672342
aF-11.148192104491859
aF-11.188033850095312
aF0.0
aa(lp106
F-10.170752492544256
aF-9.981391904491737
aF-10.139808359390369
aF-10.163392661086599
aF0.0
aa(lp107
F-8.986936696373196
aF-9.036175602711719
aF-9.016567766744954
aF-9.012613444890054
aF0.0
aa(lp108
F-8.236167336572867
aF-8.315026021259898
aF-8.21949383409707
aF-8.211127353347397
aF0.0
aa(lp109
F-7.780796122680994
aF-7.845015104878144
aF-7.748885331467827
aF-7.8711876879476605
aF0.0
aa(lp110
F-7.731025353942717
aF-7.6863433408825514
aF-7.703776062542879
aF-7.700371874442231
aF0.0
aa(lp111
F-7.64500280091578
aF-7.606591403284742
aF-7.69058601263087
aF-7.6640411685167305
aF0.0
aa(lp112
F-7.69496381467424
aF-7.631727386082909
aF-7.659891254776624
aF-7.6306854115153255
aF0.0
aa(lp113
F0.0
aF0.0
aF0.0
aF0.0
aF0.0
aa(lp114
F-65.51561719415447
aF-65.48808522139807
aF-65.57203550268503
aF-65.65464588046821
aF0.0
aa(lp115
F-65.62933488015376
aF-65.60970115155338
aF-65.68122372106475
aF-65.64101272804683
aF0.0
aa(lp116
F-65.53992101148822
aF-65.6142018054524
aF-65.60236940289177
aF-65.5945932290573
aF0.0
aa(lp117
F-65.54910757484069
aF-65.63683342228639
aF-65.53600594499144
aF-65.57242866985214
aF0.0
aa(lp118
F-65.5303579706956
aF-65.58604467724784
aF-65.52209005711951
aF-65.58211812080306
aF0.0
aa(lp119
F-65.49679213770216
aF-65.40050844936454
aF-65.4718485160343
aF-65.55128338239052
aF0.0
aa(lp120
F-65.4906200663369
aF-65.49720890518364
aF-65.45172959765036
aF-65.50239174635733
aF0.0
aa(lp121
F-65.60749123353986
aF-65.63208098081135
aF-65.63612280576919
aF-65.73162052369034
aF0.0
aa(lp122
F-65.40236027756472
aF-65.44234022782281
aF-65.32306903596789
aF-65.32406124687404
aF0.0
aa(lp123
F-65.02664962569361
aF-65.07705605220566
aF-65.13484570395626
aF-65.09611704757987
aF0.0
aa(lp124
F-64.75397495102133
aF-64.81128333406204
aF-64.7493388657931
aF-64.77138924988431
aF0.0
aa(lp125
F-64.6556415124157
aF-64.73550379014506
aF-64.78763916660847
aF-64.64057268743227
aF0.0
aa(lp126
F-64.85735172432315
aF-64.74222920564074
aF-64.77738238987828
aF-64.81423894088563
aF0.0
aa(lp127
F-64.67549832905607
aF-64.69947785538238
aF-64.62605237156957
aF-64.75882374988778
aF0.0
aa(lp128
F0.0
aF0.0
aF0.0
aF0.0
aF0.0
aa(lp129
F0.0
aF0.0
aF0.0
aF0.0
aF0.0
aa(lp130
F-14.799360747664215
aF-14.814426869535378
aF-14.774314836025402
aF-14.825773989626757
aF0.0
aa(lp131
F-14.82743062274259
aF-14.811192601127804
aF-14.79774905780625
aF-14.850425493224007
aF0.0
aa(lp132
F-14.68713300733644
aF-14.666755869809315
aF-14.69844008920008
aF-14.690785857340245
aF0.0
aa(lp133
F-13.98251382844072
aF-13.867630297780364
aF-13.967128086183262
aF-14.04041555593117
aF0.0
aa(lp134
F-13.173389318770575
aF-13.078739269304013
aF-13.093816884598297
aF-13.037667764914854
aF0.0
aa(lp135
F-12.69016206381416
aF-12.575985847530212
aF-12.571204226558653
aF-12.595070766489732
aF0.0
aa(lp136
F-12.026991971111062
aF-12.050433065926512
aF-12.0354891221423
aF-12.036451857591922
aF0.0
aa(lp137
F-11.249405906255497
aF-11.231185496292998
aF-11.24475682279881
aF-11.33544749377953
aF0.0
aa(lp138
F-10.486634755997752
aF-10.596303873359467
aF-10.54246154140823
aF-10.49875480330655
aF0.0
aa(lp139
F-9.302238034755367
aF-9.217531906383538
aF-9.270363129144233
aF-9.385923879351422
aF0.0
aa(lp140
F-8.216250266460317
aF-8.130417847510987
aF-8.11903603808608
aF-8.12347609245312
aF0.0
aa(lp141
F-7.6242405159579505
aF-7.690354356590753
aF-7.750380388263342
aF-7.669352255286567
aF0.0
aa(lp142
F-7.560041333522
aF-7.579320186771281
aF-7.569757014914819
aF-7.557038963969373
aF0.0
aa(lp143
F-7.359929726388057
aF-7.447846139747031
aF-7.430181722191769
aF-7.38322533920554
aF0.0
aa(lp144
F-7.48510048218616
aF-7.451724460026036
aF-7.432474541464049
aF-7.486922378778458
aF0.0
aa(lp145
F0.0
aF0.0
aF0.0
aF0.0
aF0.0
aa(lp146
F-65.43818484465946
aF-65.48402198492504
aF-65.46224975094941
aF-65.56016739455094
aF0.0
aa(lp147
F-65.43190062187901
aF-65.47150876268549
aF-65.49365795448406
aF-65.5073864543998
aF0.0
aa(lp148
F-65.45777795224365
aF-65.4391865901224
aF-65.44608612426903
aF-65.38053632263814
aF0.0
aa(lp149
F-65.59500827544454
aF-65.47633304339436
aF-65.48888180743582
aF-65.41071870918978
aF0.0
aa(lp150
F-65.56449261607071
aF-65.57106674145503
aF-65.53279750048274
aF-65.47418725037778
aF0.0
aa(lp151
F-65.60744747591548
aF-65.60526428502762
aF-65.60537710096138
aF-65.58491776890538
aF0.0
aa(lp152
F-65.58774741210476
aF-65.6069994359486
aF-65.55910461339505
aF-65.73220962723911
aF0.0
aa(lp153
F-65.75284556500671
aF-65.75925733776805
aF-65.71685674438146
aF-65.77875749953105
aF0.0
aa(lp154
F-65.678248010116
aF-65.78709507806902
aF-65.7199063486167
aF-65.64525726165996
aF0.0
aa(lp155
F-65.52933999484033
aF-65.56831626370096
aF-65.49436444336905
aF-65.59174623188161
aF0.0
aa(lp156
F-65.37978482558916
aF-65.30043526276597
aF-65.29974104001984
aF-65.4323742310937
aF0.0
aa(lp157
F-65.17334393509853
aF-65.18651859885615
aF-65.08612621640833
aF-65.07371444267403
aF0.0
aa(lp158
F-65.0661895582865
aF-65.14870262204155
aF-65.17442587691963
aF-65.16532868471242
aF0.0
aa(lp159
F-64.97685728675644
aF-64.75980801836523
aF-64.8163930204785
aF-64.7901881879906
aF0.0
aa(lp160
F0.0
aF0.0
aF0.0
aF0.0
aF0.0
aa(lp161
F0.0
aF0.0
aF0.0
aF0.0
aF0.0
aa(lp162
F-15.109047155947026
aF-15.270638089065772
aF-15.227880689130894
aF-15.090931237974377
aF0.0
aa(lp163
F-14.87165189821829
aF-14.919028304637203
aF-14.898700773968946
aF-14.973791431704946
aF0.0
aa(lp164
F-14.585697987582252
aF-14.575623183336536
aF-14.692128889525268
aF-14.63267153713552
aF0.0
aa(lp165
F-13.99533952611318
aF-14.054967047029452
aF-14.055605141085463
aF-14.036726847665438
aF0.0
aa(lp166
F-13.351850627819513
aF-13.311097818812035
aF-13.400033867383772
aF-13.284918738852854
aF0.0
aa(lp167
F-12.673729758094666
aF-12.722339527456269
aF-12.792809965311251
aF-12.733500007044965
aF0.0
aa(lp168
F-12.337581968127434
aF-12.21855436987453
aF-12.21705695085318
aF-12.241852964782344
aF0.0
aa(lp169
F-11.690575594601215
aF-11.759237155088961
aF-11.87896744898914
aF-11.668721826007241
aF0.0
aa(lp170
F-10.797336896026707
aF-10.755564208239427
aF-10.74567049794566
aF-10.968715408164945
aF0.0
aa(lp171
F-9.133027918676698
aF-9.254935039764225
aF-8.921337986645701
aF-8.878913175647144
aF0.0
aa(lp172
F-8.005730371735682
aF-8.050571351803955
aF-8.010404543713353
aF-7.973665087881457
aF0.0
aa(lp173
F-7.586189939239406
aF-7.55135633474926
aF-7.603587248609579
aF-7.613767251404408
aF0.0
aa(lp174
F-7.400958679825276
aF-7.390796820454182
aF-7.395361051510545
aF-7.381414055558671
aF0.0
aa(lp175
F-6.942407287244186
aF-6.997185370805328
aF-6.998377998538777
aF-7.03364523723804
aF0.0
aa(lp176
F-7.255701438587097
aF-7.281741866289858
aF-7.244547876578015
aF-7.2681021601391205
aF0.0
aa(lp177
F0.0
aF0.0
aF0.0
aF0.0
aF0.0
aa(lp178
F-64.84851206611067
aF-64.82945442203624
aF-64.99708213701527
aF-64.67217839557584
aF0.0
aa(lp179
F-65.22850470769251
aF-65.19683656333518
aF-65.15604689786223
aF-65.17388495328227
aF0.0
aa(lp180
F-65.37432856813098
aF-65.35295748058294
aF-65.38537860620538
aF-65.38447829048125
aF0.0
aa(lp181
F-65.52277174624376
aF-65.51041870945822
aF-65.54281271327457
aF-65.4942624731565
aF0.0
aa(lp182
F-65.47780244177181
aF-65.52838650555853
aF-65.57087930561327
aF-65.6347644427327
aF0.0
aa(lp183
F-65.58317645843606
aF-65.60962875535061
aF-65.56101784452918
aF-65.53968212491057
aF0.0
aa(lp184
F-65.63218877000327
aF-65.66287495097953
aF-65.69700988405613
aF-65.66475501599614
aF0.0
aa(lp185
F-65.80004112633631
aF-65.81761065630222
aF-65.70007033130145
aF-65.74445286492265
aF0.0
aa(lp186
F-65.92057576498706
aF-65.87813359018067
aF-65.95981466909865
aF-65.91986923722527
aF0.0
aa(lp187
F-65.8827453449963
aF-65.95626158429411
aF-65.89144959011416
aF-65.86181308250899
aF0.0
aa(lp188
F-65.84500096970703
aF-65.79489438199384
aF-65.77319558704907
aF-65.83165168056443
aF0.0
aa(lp189
F-65.56991212359964
aF-65.59972903843847
aF-65.66444287241977
aF-65.56524881033027
aF0.0
aa(lp190
F-65.43569852938266
aF-65.4476700256028
aF-65.44397025746291
aF-65.45378434235832
aF0.0
aa(lp191
F-65.21742733132936
aF-65.15367599874729
aF-65.18829039826866
aF-65.14595315990529
aF0.0
aa(lp192
F0.0
aF0.0
aF0.0
aF0.0
aF0.0
aa(lp193
F0.0
aF0.0
aF0.0
aF0.0
aF0.0
aa(lp194
F-15.765232689311908
aF-15.810748783374407
aF-15.68132737012101
aF-15.660982055912447
aF0.0
aa(lp195
F-15.174190951313525
aF-15.467430695672732
aF-15.314864499824333
aF-15.265839806049131
aF0.0
aa(lp196
F-15.02061090037429
aF-14.958800937418015
aF-14.990596633945126
aF-14.934891342511927
aF0.0
aa(lp197
F-14.639657012026946
aF-14.48023381397522
aF-14.516566370944725
aF-14.495701343165257
aF0.0
aa(lp198
F-14.122284468317034
aF-14.261547490468985
aF-14.218192451799055
aF-14.228341759204772
aF0.0
aa(lp199
F-13.516402436079165
aF-13.605905562332556
aF-13.67960008587906
aF-13.656375802214116
aF0.0
aa(lp200
F-12.9170469126243
aF-12.903019741454548
aF-12.825946503610158
aF-12.994249675204824
aF0.0
aa(lp201
F-12.089718817114163
aF-12.091342797238289
aF-11.993245535670788
aF-12.123622352664617
aF0.0
aa(lp202
F-10.861806068054342
aF-10.865213124083455
aF-10.866984252041751
aF-10.988020937219472
aF0.0
aa(lp203
F-9.303347152760656
aF-9.327207362379644
aF-9.282271775152802
aF-9.241492905151372
aF0.0
aa(lp204
F-8.34552564371219
aF-8.313752787378974
aF-8.436869576747839
aF-8.297739276619799
aF0.0
aa(lp205
F-7.647266997574825
aF-7.60364149663265
aF-7.741910765287071
aF-7.613671595920924
aF0.0
aa(lp206
F-7.115387506423464
aF-7.0537315199128185
aF-7.122178819968826
aF-6.977679811927038
aF0.0
aa(lp207
F-6.508085262301518
aF-6.901951964065139
aF-6.4465027236760255
aF-5.604663899403831
aF0.0
aa(lp208
F-6.648422210558952
aF-6.633263186562209
aF-6.8140121162366984
aF-6.798520454877885
aF0.0
aa(lp209
F0.0
aF0.0
aF0.0
aF0.0
aF0.0
aa(lp210
F-63.6763560588526
aF-63.704063085381456
aF-63.69091582488665
aF-63.329213865445844
aF0.0
aa(lp211
F-64.50474266000015
aF-64.50155446689439
aF-64.51729365528239
aF-64.6289630313673
aF0.0
aa(lp212
F-65.13542722164597
aF-65.10657634561504
aF-65.21565692110323
aF-65.10485359591067
aF0.0
aa(lp213
F-65.48094958264683
aF-65.44929744740752
aF-65.46791075080561
aF-65.37958440376055
aF0.0
aa(lp214
F-65.63161089702645
aF-65.61081608808932
aF-65.6001914418105
aF-65.55138533609046
aF0.0
aa(lp215
F-65.52555033417791
aF-65.48107346960367
aF-65.48263811438503
aF-65.66748414358176
aF0.0
aa(lp216
F-65.40221518308792
aF-65.59824786062208
aF-65.3183284274741
aF-65.39948316805584
aF0.0
aa(lp217
F-65.70013359606088
aF-65.71058380477112
aF-65.7722658961533
aF-65.77063909866129
aF0.0
aa(lp218
F-66.11449841212884
aF-66.03375993018557
aF-66.17140329129278
aF-66.09902103941383
aF0.0
aa(lp219
F-66.27466521585725
aF-66.19505791469697
aF-66.16658343526908
aF-66.13410047534275
aF0.0
aa(lp220
F-66.10422812040753
aF-66.17385684811072
aF-66.16703841734063
aF-66.17700643398004
aF0.0
aa(lp221
F-65.90450610420078
aF-65.93567629719122
aF-66.01609381161971
aF-65.9246243086344
aF0.0
aa(lp222
F-65.71175576589492
aF-65.84186565737713
aF-65.72821501989199
aF-65.75275003970248
aF0.0
aa(lp223
F-65.34767684722824
aF-65.42897193184974
aF-65.41054928880426
aF-65.3208388833577
aF0.0
aa(lp224
F0.0
aF0.0
aF0.0
aF0.0
aF0.0
aa(lp225
F0.0
aF0.0
aF0.0
aF0.0
aF0.0
aa(lp226
F-16.64934012158417
aF-16.4109817796855
aF-16.418624465671122
aF-16.475109856789512
aF0.0
aa(lp227
F-16.076467509641336
aF-15.992191006740846
aF-16.069022964209783
aF-16.06433973678151
aF0.0
aa(lp228
F-15.684272573315436
aF-15.637661706269034
aF-15.645791583728958
aF-15.483647509197429
aF0.0
aa(lp229
F-15.182305319745941
aF-15.310565565720585
aF-15.134623687628586
aF-15.255728661613304
aF0.0
aa(lp230
F-15.115056139480151
aF-15.082214771176972
aF-15.172266490479391
aF-15.232722011026636
aF0.0
aa(lp231
F-14.69925507122029
aF-14.655307957937234
aF-14.645409945219296
aF-14.626619635169865
aF0.0
aa(lp232
F-14.007517580565182
aF-13.974603378831807
aF-14.130721037115569
aF-14.077398879066928
aF0.0
aa(lp233
F-13.17688172119331
aF-13.189905108241838
aF-13.083977137932093
aF-13.2414057006477
aF0.0
aa(lp234
F-11.851461185142341
aF-11.747235456211465
aF-11.878056238894098
aF-11.948476293165543
aF0.0
aa(lp235
F-9.730073462110651
aF-9.74721218957027
aF-9.669665968613886
aF-9.968418635285678
aF0.0
aa(lp236
F-8.630617292483612
aF-8.668787013143143
aF-8.631931247717363
aF-8.580884960618315
aF0.0
aa(lp237
F-6.933205384161611
aF-7.296410347180136
aF-7.102769575859028
aF-7.091487541721394
aF0.0
aa(lp238
F-4.997974959728556
aF-4.9711498263471725
aF-4.930322433522274
aF-4.91618570329914
aF0.0
aa(lp239
F-3.161864047462509
aF1.979491661617237
aF-2.854582475651379
aF-3.804570043826918
aF0.0
aa(lp240
F-5.358218082767159
aF-5.317997635915548
aF-5.2758597406678795
aF-5.146139477118222
aF0.0
aa(lp241
F0.0
aF0.0
aF0.0
aF0.0
aF0.0
aa(lp242
F-60.11565337880418
aF-60.401169312706955
aF-60.22821994122967
aF-60.5456767948703
aF0.0
aa(lp243
F-62.864044091534225
aF-62.66494464841636
aF-62.895721065182634
aF-63.05915672360582
aF0.0
aa(lp244
F-64.64801970182401
aF-64.71524032300886
aF-64.8149863930467
aF-64.77870451007671
aF0.0
aa(lp245
F-65.48017592485934
aF-65.4848571600213
aF-65.43943311682453
aF-65.5056436248346
aF0.0
aa(lp246
F-65.71558329257294
aF-65.66676144622005
aF-65.68076341079562
aF-65.72107851472984
aF0.0
aa(lp247
F-65.50421937370297
aF-65.49551179091259
aF-65.5903915041504
aF-65.61964292397998
aF0.0
aa(lp248
F-65.63847817009973
aF-65.65294123613687
aF-65.54212940591405
aF-65.54759563497099
aF0.0
aa(lp249
F-66.27993129594456
aF-66.20732612798905
aF-66.26840874588902
aF-66.19080426143724
aF0.0
aa(lp250
F-66.492157651903
aF-66.51840334699561
aF-66.509760010934
aF-66.54712412089863
aF0.0
aa(lp251
F-66.34926804320496
aF-66.43757334788681
aF-66.44050646788678
aF-66.40049471669006
aF0.0
aa(lp252
F-66.52933809985069
aF-66.33161588429732
aF-66.3221822442701
aF-66.34741198352694
aF0.0
aa(lp253
F-66.33895368518598
aF-66.3178721883225
aF-66.39652812818929
aF-66.33375329116458
aF0.0
aa(lp254
F-66.40018267257283
aF-66.45474896592405
aF-66.3989074736314
aF-66.4683353042894
aF0.0
aa(lp255
F-66.15694413120913
aF-66.25278731235579
aF-66.21641686972576
aF-66.25975616835883
aF0.0
aa(lp256
F0.0
aF0.0
aF0.0
aF0.0
aF0.0
aa(lp257
F0.0
aF0.0
aF0.0
aF0.0
aF0.0
aa(lp258
F-17.246229221737373
aF-17.259575013938843
aF-17.284312804516127
aF-17.226194433634884
aF0.0
aa(lp259
F-16.873694444886777
aF-16.87116454124468
aF-16.834632941403
aF-16.86213393171508
aF0.0
aa(lp260
F-16.698498065241477
aF-16.590756204020032
aF-16.62764823236575
aF-16.531949823923263
aF0.0
aa(lp261
F-16.41873353753997
aF-16.58094794964385
aF-16.530599323667968
aF-16.55194459146471
aF0.0
aa(lp262
F-15.824464281151718
aF-15.857003013811271
aF-15.842902523652983
aF-15.90001805368295
aF0.0
aa(lp263
F-15.215052806616788
aF-15.287086430273304
aF-15.262572779861886
aF-15.201556381850564
aF0.0
aa(lp264
F-14.636651915037346
aF-14.552270206329274
aF-14.515184672546358
aF-14.610523315928576
aF0.0
aa(lp265
F-13.622141702783649
aF-13.49513645708232
aF-13.470434061516103
aF-13.512400292519917
aF0.0
aa(lp266
F-12.774467170071471
aF-12.604961309752085
aF-12.69870650985861
aF-12.726730286025271
aF0.0
aa(lp267
F-10.606404357872062
aF-10.886334958877864
aF-10.767551074073587
aF-10.925728439890523
aF0.0
aa(lp268
F-9.334133225619617
aF-9.370016974013389
aF-9.410316235235316
aF-8.544439240047865
aF0.0
aa(lp269
F-6.7746377406620555
aF-6.750198538951494
aF-6.768192281662975
aF-7.041906583259283
aF0.0
aa(lp270
F-2.6245184462755353
aF-2.552721283812397
aF-2.316735026724377
aF-2.4317661550438303
aF0.0
aa(lp271
F0.0
aF0.0
aF0.0
aF0.0
aF0.0
aa(lp272
F-8.658503945735006
aF-9.954200651583436
aF-10.087269529609745
aF-7.224220725768475
aF0.0
aa(lp273
F-36.9964558482677
aF-36.10009173953791
aF-31.555700055294135
aF-35.70486157051884
aF0.0
aa(lp274
F-55.34359266348791
aF-55.728095500388775
aF-53.07636996049032
aF-55.45290114240604
aF0.0
aa(lp275
F-61.21987097804852
aF-62.0045062685401
aF-61.94507754063543
aF-61.85205478395285
aF0.0
aa(lp276
F-64.21492787028336
aF-64.37708336822642
aF-64.33112241617727
aF-64.3572040299387
aF0.0
aa(lp277
F-65.33387082486021
aF-65.25771369633381
aF-65.27800068890113
aF-65.22479934633026
aF0.0
aa(lp278
F-65.49962642870645
aF-65.57844946807367
aF-65.48746172109068
aF-65.50870478024352
aF0.0
aa(lp279
F-65.58660333452512
aF-65.6279723393371
aF-65.50485850096179
aF-65.45417219416103
aF0.0
aa(lp280
F-65.97059375392294
aF-66.05311552138356
aF-66.09448128142957
aF-66.05758918505799
aF0.0
aa(lp281
F-66.55377388339322
aF-66.52687127945677
aF-66.3764796089137
aF-66.49287676523191
aF0.0
aa(lp282
F-66.71349016971075
aF-66.71162551067651
aF-66.73650475009195
aF-66.75368820541644
aF0.0
aa(lp283
F-66.70118886322636
aF-66.61807835135906
aF-66.68783159547694
aF-66.76156981195638
aF0.0
aa(lp284
F-66.71110031554325
aF-66.74531608230345
aF-66.79727646132366
aF-66.79434448277244
aF0.0
aa(lp285
F-66.8532667599618
aF-66.81749949016603
aF-66.77462841537964
aF-66.80764800700524
aF0.0
aa(lp286
F-66.83520195692684
aF-66.86655515246903
aF-66.80514380330591
aF-66.81210564273022
aF0.0
aa(lp287
F-66.83098802981893
aF-66.66047803092262
aF-66.64623689379229
aF-66.65528812095666
aF0.0
aa(lp288
F0.0
aF0.0
aF0.0
aF0.0
aF0.0
aa(lp289
F0.0
aF0.0
aF0.0
aF0.0
aF0.0
aa(lp290
F-17.726666929973348
aF-17.79934596582363
aF-17.683856940760872
aF-17.71370516719165
aF0.0
aa(lp291
F-17.567365622644573
aF-17.561176871609664
aF-17.549466965506575
aF-17.527663919897186
aF0.0
aa(lp292
F-17.421866081550704
aF-17.351015177793446
aF-17.353956971526696
aF-17.440056218066328
aF0.0
aa(lp293
F-17.12706704683134
aF-17.236014779326663
aF-17.17490795164458
aF-17.14543230514549
aF0.0
aa(lp294
F-16.366272687333872
aF-16.396131250341348
aF-16.311812177516522
aF-16.334427708516387
aF0.0
aa(lp295
F-15.672158931089246
aF-15.676689905809159
aF-15.628531261046716
aF-15.634038934202039
aF0.0
aa(lp296
F-15.145893750083685
aF-15.00153664064007
aF-15.128080025607844
aF-15.08711622511075
aF0.0
aa(lp297
F-14.266908442035437
aF-14.12259351837001
aF-14.237979309737494
aF-14.155611525409332
aF0.0
aa(lp298
F-13.470653053568812
aF-13.508965423339315
aF-13.41957700201198
aF-13.471084958257851
aF0.0
aa(lp299
F-12.031297885075082
aF-12.02176913773377
aF-11.954826821374692
aF-11.875625497366538
aF0.0
aa(lp300
F-9.9570638823403
aF-9.935268460196726
aF-9.834984705297899
aF-10.009098935069355
aF0.0
aa(lp301
F-7.432691769045762
aF-7.448933097749816
aF-7.607965456608709
aF-7.381441708465997
aF0.0
aa(lp302
F-4.795705515736703
aF-4.312101972186077
aF-4.805401710362379
aF-4.798063048220871
aF0.0
aa(lp303
F-1.0901634048390507
aF0.6601862587481577
aF-1.4270468610575335
aF-1.3015218599782226
aF0.0
aa(lp304
F-4.331017520281003
aF-3.931558831031344
aF-4.243966481556377
aF-4.253264696991863
aF0.0
aa(lp305
F0.0
aF0.0
aF0.0
aF0.0
aF0.0
aa(lp306
F-60.224862135674734
aF-59.95228544919919
aF-59.771621574885515
aF-58.88662756656013
aF0.0
aa(lp307
F-62.047353643480214
aF-62.379275494704714
aF-62.535724830284465
aF-62.383450316224305
aF0.0
aa(lp308
F-64.38315627998557
aF-64.45423534129715
aF-64.2476963769937
aF-64.40622632569297
aF0.0
aa(lp309
F-65.35047658484584
aF-65.47210097250128
aF-65.36267216521134
aF-65.39304964321997
aF0.0
aa(lp310
F-65.66184923235532
aF-65.61560415307467
aF-65.55167859902897
aF-65.68216413499405
aF0.0
aa(lp311
F-66.29490334434176
aF-66.29957371177683
aF-66.44680105747838
aF-66.28712818436473
aF0.0
aa(lp312
F-66.80271787734964
aF-66.69295284444017
aF-66.73586879403771
aF-66.71723329225243
aF0.0
aa(lp313
F-67.0151298779204
aF-66.93281574496129
aF-66.98437156443866
aF-66.90904242575132
aF0.0
aa(lp314
F-66.9784000124246
aF-67.02854197150066
aF-67.0392582563223
aF-67.11113337785955
aF0.0
aa(lp315
F-67.17319074863344
aF-67.15572665084824
aF-67.15036488984472
aF-67.22474645275595
aF0.0
aa(lp316
F-67.31615941896831
aF-67.31177120568552
aF-67.29713916923134
aF-67.35924125205354
aF0.0
aa(lp317
F-67.19883897161105
aF-67.21496299691327
aF-67.16725545262415
aF-67.25455677825937
aF0.0
aa(lp318
F-67.32478728003241
aF-67.25679491910304
aF-67.28567870243772
aF-67.27532627382087
aF0.0
aa(lp319
F-67.32429953590348
aF-67.39740932505475
aF-67.35790706271153
aF-67.40079723287394
aF0.0
aa(lp320
F0.0
aF0.0
aF0.0
aF0.0
aF0.0
aa(lp321
F0.0
aF0.0
aF0.0
aF0.0
aF0.0
aa(lp322
F-18.022694979432853
aF-18.019900838364943
aF-18.08738252771565
aF-18.021648399979547
aF0.0
aa(lp323
F-17.95611932428746
aF-17.9833296656867
aF-17.920012586753575
aF-17.887080019528003
aF0.0
aa(lp324
F-17.772577141876894
aF-17.658986625192863
aF-17.61206625281843
aF-17.812900564899685
aF0.0
aa(lp325
F-17.516813050061803
aF-17.514320827909028
aF-17.5661268674027
aF-17.52534046921625
aF0.0
aa(lp326
F-17.232181411906247
aF-17.203898499224096
aF-17.184559034605684
aF-17.399580063433223
aF0.0
aa(lp327
F-16.441235761707045
aF-16.51161745769149
aF-16.479261175792345
aF-16.441989781630262
aF0.0
aa(lp328
F-15.89168625024592
aF-15.838372226273275
aF-15.876642061353285
aF-15.756872348436923
aF0.0
aa(lp329
F-15.009683256950542
aF-15.004298781335583
aF-15.06365049881403
aF-14.965454650951683
aF0.0
aa(lp330
F-14.317016243848727
aF-14.244191021385832
aF-14.068197298128712
aF-14.189063327083899
aF0.0
aa(lp331
F-12.373523379805526
aF-12.577353443368304
aF-12.394938285349072
aF-12.382600964814724
aF0.0
aa(lp332
F-10.60912127269148
aF-10.366743947999643
aF-10.341754271071201
aF-10.5232097628684
aF0.0
aa(lp333
F-8.478135023222077
aF-8.531853064346393
aF-8.431808518218205
aF-8.594896546105513
aF0.0
aa(lp334
F-6.1968279911868285
aF-6.292105280272561
aF-6.247510126696262
aF-6.284114673930499
aF0.0
aa(lp335
F-5.033317815202101
aF-5.179315657355196
aF-5.2281766509616965
aF-5.08189077363821
aF0.0
aa(lp336
F-4.9168186266486495
aF-4.856078027342717
aF-4.883404761533236
aF-4.888398334226394
aF0.0
aa(lp337
F0.0
aF0.0
aF0.0
aF0.0
aF0.0
aa(lp338
F-63.038921577719655
aF-62.793879828750974
aF-63.25966300111222
aF-63.1668715608386
aF0.0
aa(lp339
F-64.09425129850982
aF-64.01150389792473
aF-64.00202140175176
aF-64.00919977548836
aF0.0
aa(lp340
F-65.30779727978297
aF-65.24575424860203
aF-65.17777510589393
aF-65.19288967082046
aF0.0
aa(lp341
F-66.096039011764
aF-66.10378001248115
aF-66.11746028360895
aF-66.21498740957527
aF0.0
aa(lp342
F-66.58184564993041
aF-66.6338621776913
aF-66.52754981146863
aF-66.57162341291246
aF0.0
aa(lp343
F-67.12014772909546
aF-67.03863081966242
aF-67.06213267221733
aF-67.03370095290362
aF0.0
aa(lp344
F-67.31522995005227
aF-67.33556010648635
aF-67.31289672507678
aF-67.2771729058378
aF0.0
aa(lp345
F-67.32940757339219
aF-67.3465604784796
aF-67.26780832064317
aF-67.26883545011827
aF0.0
aa(lp346
F-67.20577225317624
aF-67.15422843409542
aF-67.22627608480471
aF-67.14804810926826
aF0.0
aa(lp347
F-67.30338689368165
aF-67.3657136819344
aF-67.34496468939267
aF-67.28219308729227
aF0.0
aa(lp348
F-67.59333362173612
aF-67.59336678530029
aF-67.78782011047828
aF-67.6631322384257
aF0.0
aa(lp349
F-67.61602851059892
aF-67.60049160274366
aF-67.64009151534769
aF-67.72640753103353
aF0.0
aa(lp350
F-67.80592999431789
aF-67.68985556821454
aF-67.7777003399369
aF-67.73425202621804
aF0.0
aa(lp351
F-67.64596537318475
aF-67.6366824844383
aF-67.65002213183479
aF-67.60848567310262
aF0.0
aa(lp352
F0.0
aF0.0
aF0.0
aF0.0
aF0.0
aa(lp353
F0.0
aF0.0
aF0.0
aF0.0
aF0.0
aa(lp354
F-18.543079705976357
aF-18.562342140971737
aF-18.596750206252437
aF-18.551472349483596
aF0.0
aa(lp355
F-18.359242391814053
aF-18.448502197201403
aF-18.338443473202815
aF-18.45339089763248
aF0.0
aa(lp356
F-18.319715813596595
aF-18.27273409027829
aF-18.334003811495112
aF-18.315558351043855
aF0.0
aa(lp357
F-18.302149791265098
aF-18.35009630278037
aF-18.36973072557225
aF-18.344651342515807
aF0.0
aa(lp358
F-18.073371851266476
aF-18.091719170610045
aF-18.19521538727219
aF-17.989268116409573
aF0.0
aa(lp359
F-17.598539846221847
aF-17.29127061886541
aF-17.388293896225765
aF-17.4635846076554
aF0.0
aa(lp360
F-16.732528522032332
aF-16.588174997620214
aF-16.847441588973062
aF-16.496149876428003
aF0.0
aa(lp361
F-16.232476816767274
aF-16.33714058424318
aF-16.120104966128746
aF-16.311763490710103
aF0.0
aa(lp362
F-15.37047146037399
aF-15.26894975608869
aF-15.460824855406933
aF-15.437817919230707
aF0.0
aa(lp363
F-13.535122813831597
aF-13.520313318603662
aF-13.710569544849323
aF-13.27975068472859
aF0.0
aa(lp364
F-11.046560574886074
aF-11.062578163660875
aF-10.996574055861315
aF-10.952303037975566
aF0.0
aa(lp365
F-8.556473089546454
aF-8.508387611779154
aF-8.3653285851306
aF-8.641166281490188
aF0.0
aa(lp366
F-6.665370478183856
aF-6.627747032519505
aF-6.668421680196268
aF-6.54753601979194
aF0.0
aa(lp367
F-5.15006357669595
aF-4.928857987598046
aF-4.994801638086376
aF-4.9239652632051785
aF0.0
aa(lp368
F-3.5639863763160866
aF-3.88669030203079
aF-3.773519889402837
aF-3.67479726994314
aF0.0
aa(lp369
F0.0
aF0.0
aF0.0
aF0.0
aF0.0
aa(lp370
F-65.02763587470561
aF-64.8457326187172
aF-65.04576916495145
aF-64.96324577872345
aF0.0
aa(lp371
F-65.1430287120908
aF-65.19147685020037
aF-65.24542140254223
aF-65.18402785242783
aF0.0
aa(lp372
F-66.04775997772954
aF-66.12121644738957
aF-65.99548726367263
aF-66.12911715812204
aF0.0
aa(lp373
F-66.79003714435945
aF-66.59776339641998
aF-66.56140891407559
aF-66.58387989190783
aF0.0
aa(lp374
F-67.05384193994692
aF-67.05721271979138
aF-67.18302570346337
aF-67.04171775292701
aF0.0
aa(lp375
F-67.40276421146916
aF-67.38215770082884
aF-67.37591255423814
aF-67.3622223293217
aF0.0
aa(lp376
F-67.64158985631151
aF-67.67928642260102
aF-67.57413177668033
aF-67.61315833468345
aF0.0
aa(lp377
F-67.64956070044076
aF-67.68085776304308
aF-67.68318059078365
aF-67.75200699147484
aF0.0
aa(lp378
F-67.45382550263582
aF-67.46452705036029
aF-67.50667820084652
aF-67.64889409882379
aF0.0
aa(lp379
F-67.535992845856
aF-67.61554675287994
aF-67.54569916881216
aF-67.54159354771949
aF0.0
aa(lp380
F-67.98058991922568
aF-67.9859861236481
aF-68.01093560214899
aF-67.96332835399286
aF0.0
aa(lp381
F-68.09707097037997
aF-68.03041584240533
aF-68.07324030088695
aF-68.11715186323589
aF0.0
aa(lp382
F-68.07893376188657
aF-68.15010396486859
aF-68.09268938621648
aF-68.14280059208329
aF0.0
aa(lp383
F-68.02516899869873
aF-68.04554529542247
aF-67.97607198421011
aF-68.09478235517093
aF0.0
aa(lp384
F0.0
aF0.0
aF0.0
aF0.0
aF0.0
aa(lp385
F0.0
aF0.0
aF0.0
aF0.0
aF0.0
aa(lp386
F-18.97553015416588
aF-18.901133938360186
aF-19.084741901201994
aF-19.043368190995103
aF0.0
aa(lp387
F-18.866450510227068
aF-18.96694362091521
aF-18.859226229785158
aF-18.925545705920843
aF0.0
aa(lp388
F-18.52378996435292
aF-18.658220763923918
aF-18.57162251914839
aF-18.660348391401445
aF0.0
aa(lp389
F-18.68950711575249
aF-18.697711649593632
aF-18.754758805151347
aF-18.692831319024165
aF0.0
aa(lp390
F-18.788496321500258
aF-18.772822467985495
aF-18.811956811865848
aF-18.757822816484683
aF0.0
aa(lp391
F-18.508751361827226
aF-18.45400432901456
aF-18.54088756869717
aF-18.45772173529406
aF0.0
aa(lp392
F-18.258231789746866
aF-18.23397672017339
aF-18.09821445364159
aF-18.084043876278493
aF0.0
aa(lp393
F-17.78322380450968
aF-17.60092369261927
aF-17.91885490468531
aF-17.773726729365684
aF0.0
aa(lp394
F-16.216663075173653
aF-16.398290939685168
aF-16.572151403659106
aF-16.349933869663513
aF0.0
aa(lp395
F-15.102500929354928
aF-14.916891361588652
aF-15.072446255176802
aF-15.127118899856155
aF0.0
aa(lp396
F-11.775303785242022
aF-11.993811320297455
aF-11.834582225285597
aF-11.952752995797466
aF0.0
aa(lp397
F-9.601713004344754
aF-9.71246945004578
aF-9.27162733189722
aF-9.447900511836313
aF0.0
aa(lp398
F-5.944929858842207
aF-6.145138288070372
aF-5.945857370408572
aF-6.171824366850621
aF0.0
aa(lp399
F-3.5055502098263682
aF-3.144621372540035
aF-3.1200249596992986
aF-2.7869131609526185
aF0.0
aa(lp400
F-0.7234754228239514
aF0.5092125932140399
aF-1.2411125477751404
aF-1.5015936506846443
aF0.0
aa(lp401
F0.0
aF0.0
aF0.0
aF0.0
aF0.0
aa(lp402
F-65.54052857190595
aF-65.57676563659669
aF-65.57000441446633
aF-65.66122170175422
aF0.0
aa(lp403
F-66.16358350293042
aF-66.120843345449
aF-66.10714583812458
aF-66.11785158930462
aF0.0
aa(lp404
F-66.6756742892097
aF-66.66282366003412
aF-66.6651640943407
aF-66.67598777912765
aF0.0
aa(lp405
F-67.21187659901001
aF-67.18229503159475
aF-67.2151576202648
aF-67.32117044472305
aF0.0
aa(lp406
F-67.5792645198087
aF-67.63498425534274
aF-67.58391227851305
aF-67.66463314119291
aF0.0
aa(lp407
F-67.83194257025792
aF-67.73891280788477
aF-67.7514884616554
aF-67.80888605447069
aF0.0
aa(lp408
F-68.12183932643919
aF-68.16070757076574
aF-68.22172908065481
aF-68.2155180149903
aF0.0
aa(lp409
F-68.43660411521472
aF-68.56170163523755
aF-68.47616466364022
aF-68.44599664283379
aF0.0
aa(lp410
F-68.4136323038983
aF-68.39446113904809
aF-68.41237210753587
aF-68.3906443939608
aF0.0
aa(lp411
F-68.1940234858611
aF-68.21376333386144
aF-68.3355035502903
aF-68.1881449625267
aF0.0
aa(lp412
F-68.44818540256568
aF-68.43097227267566
aF-68.41499865080185
aF-68.35945359180934
aF0.0
aa(lp413
F-68.3695429578852
aF-68.33843727052343
aF-68.3135401708047
aF-68.32265173982309
aF0.0
aa(lp414
F-68.35829613768345
aF-68.34629649910846
aF-68.32897531997273
aF-68.39746176324755
aF0.0
aa(lp415
F-68.7030147399921
aF-68.59458153502996
aF-68.6458082972238
aF-68.84253656841013
aF0.0
aa(lp416
F0.0
aF0.0
aF0.0
aF0.0
aF0.0
aa(lp417
F0.0
aF0.0
aF0.0
aF0.0
aF0.0
aa(lp418
F-19.257493192071554
aF-19.24802675313918
aF-19.272075152196866
aF-19.240256170745724
aF0.0
aa(lp419
F-19.25621936705836
aF-19.257474839161283
aF-19.243600006837028
aF-19.253099799058315
aF0.0
aa(lp420
F-18.908520623971558
aF-18.866111447578184
aF-18.914925316833443
aF-18.841468655690868
aF0.0
aa(lp421
F-18.95526025202213
aF-18.968663419860075
aF-18.883445952712723
aF-18.85427395838396
aF0.0
aa(lp422
F-19.267685049872235
aF-19.186511519351736
aF-19.294704605421487
aF-19.207641222775813
aF0.0
aa(lp423
F-19.25870096306969
aF-19.27301472760445
aF-19.079187807229452
aF-19.22362272476239
aF0.0
aa(lp424
F-19.35977950805442
aF-19.372097121325034
aF-19.59843015722583
aF-19.389097141850954
aF0.0
aa(lp425
F-18.971269983420605
aF-19.1789913179407
aF-19.15994962529353
aF-19.177246331214324
aF0.0
aa(lp426
F-17.726832691435174
aF-17.751622415558575
aF-17.817114227688958
aF-17.86785607680106
aF0.0
aa(lp427
F-15.87856366566891
aF-15.900961422808365
aF-15.769705987666175
aF-15.974972863660065
aF0.0
aa(lp428
F-13.138111858348454
aF-13.187788764200086
aF-13.019247423432304
aF-12.927014722279617
aF0.0
aa(lp429
F-10.635594361198216
aF-10.245466383241544
aF-10.336058561008711
aF-10.491401058064092
aF0.0
aa(lp430
F-6.9096571934128885
aF-6.770875361670164
aF-6.688007951805119
aF-6.824049687878745
aF0.0
aa(lp431
F0.5429257246772939
aF-2.4019879019558195
aF-2.235597812423745
aF-3.0113789667339637
aF0.0
aa(lp432
F0.0
aF0.0
aF0.0
aF0.0
aF0.0
aa(lp433
F0.0
aF0.0
aF0.0
aF0.0
aF0.0
aa(lp434
F-65.72057359896746
aF-65.79141618237684
aF-65.80657679018555
aF-65.7885739374106
aF0.0
aa(lp435
F-66.37437320195988
aF-66.50876203547261
aF-66.38853547368475
aF-66.41948361833057
aF0.0
aa(lp436
F-67.21250076018671
aF-67.0853789857749
aF-67.12700469936564
aF-67.16860143127313
aF0.0
aa(lp437
F-67.81189054536605
aF-67.93343841632118
aF-67.88478128902995
aF-67.88236775221392
aF0.0
aa(lp438
F-68.17516196436769
aF-68.09321832809476
aF-68.05472236872392
aF-68.0498902285921
aF0.0
aa(lp439
F-68.21505842899201
aF-68.25443135942177
aF-68.24699111047107
aF-68.2106136018021
aF0.0
aa(lp440
F-68.92485859021595
aF-68.88651820368953
aF-68.9196090250474
aF-68.83004735125967
aF0.0
aa(lp441
F-69.1456199401229
aF-69.19845977245579
aF-69.06672814095202
aF-69.03154970524591
aF0.0
aa(lp442
F-69.04518811257775
aF-69.08162020600969
aF-69.01889186473448
aF-69.0386912451801
aF0.0
aa(lp443
F-68.80516984587376
aF-68.7863864803394
aF-68.83561137907733
aF-68.89134787389266
aF0.0
aa(lp444
F-68.93825407506881
aF-68.95116460762091
aF-68.97289977434716
aF-68.98619729474262
aF0.0
aa(lp445
F-69.12483580856068
aF-69.0066851801413
aF-69.08875958433875
aF-69.083435614421
aF0.0
aa(lp446
F-69.08573217830858
aF-69.04107836503246
aF-69.01874245166151
aF-69.05707446726333
aF0.0
aa(lp447
F-69.35260230511605
aF-69.37591661514776
aF-69.28751273290762
aF-69.2967821473996
aF0.0
aa(lp448
F0.0
aF0.0
aF0.0
aF0.0
aF0.0
aa(lp449
F0.0
aF0.0
aF0.0
aF0.0
aF0.0
aa(lp450
F-18.95473606992405
aF-18.99141712060754
aF-18.978379593127606
aF-19.11306463945703
aF0.0
aa(lp451
F-19.312744581390554
aF-19.27122741525218
aF-19.33070679713472
aF-19.223741394434693
aF0.0
aa(lp452
F-19.36540921742683
aF-19.290070720932963
aF-19.390510074677355
aF-19.38149889296275
aF0.0
aa(lp453
F-19.450455310278894
aF-19.416320664791332
aF-19.35330713429569
aF-19.45644166838506
aF0.0
aa(lp454
F-19.82485263217522
aF-19.761157490247538
aF-19.723981688000023
aF-19.71991193167002
aF0.0
aa(lp455
F-20.412698666472014
aF-20.46326447985489
aF-20.343763297275075
aF-20.311299526655013
aF0.0
aa(lp456
F-21.001593915166158
aF-21.029358211223368
aF-21.108081136086856
aF-21.05462670861208
aF0.0
aa(lp457
F-21.56271587939944
aF-21.75507572938804
aF-22.028483984196807
aF-21.658686862739454
aF0.0
aa(lp458
F-19.184240907705195
aF-18.999980979821938
aF-19.202322143744784
aF-18.965031226367653
aF0.0
aa(lp459
F-16.512959597351934
aF-16.19995511018493
aF-16.24125278193711
aF-16.187052456481243
aF0.0
aa(lp460
F-13.892640048612751
aF-13.091046084878412
aF-13.969966527217847
aF-14.028997144985977
aF0.0
aa(lp461
F-10.978960160828716
aF-10.894694770182005
aF-11.135787107524955
aF-10.662487883032775
aF0.0
aa(lp462
F-7.4847634908758724
aF-7.527063594808509
aF-7.673917178066862
aF-7.692304160970229
aF0.0
aa(lp463
F-4.176909556071465
aF-4.310879447398943
aF-4.068478895751938
aF-4.243264452722637
aF0.0
aa(lp464
F-0.535759296659384
aF3.0775348777131746
aF-0.8807154163851894
aF-0.6004841781614011
aF0.0
aa(lp465
F0.0
aF0.0
aF0.0
aF0.0
aF0.0
aa(lp466
F-65.99828577970437
aF-65.94026017639844
aF-65.90457229301727
aF-65.96208459612629
aF0.0
aa(lp467
F-66.84621616865633
aF-66.84376309628857
aF-66.82486038747913
aF-66.88121732386792
aF0.0
aa(lp468
F-67.52881937003325
aF-67.59204492775932
aF-67.56507400832645
aF-67.65361441374465
aF0.0
aa(lp469
F-68.13429103637459
aF-68.13985685236845
aF-68.18184491497563
aF-68.22888117915025
aF0.0
aa(lp470
F-68.51968796052572
aF-68.51729906678898
aF-68.59502548320638
aF-68.61266903335944
aF0.0
aa(lp471
F-68.77885091947249
aF-68.79333869978963
aF-68.8538558708734
aF-68.77296720539042
aF0.0
aa(lp472
F-69.42385989595252
aF-69.4354593884185
aF-69.50589854786169
aF-69.41649371661327
aF0.0
aa(lp473
F-69.87064166267189
aF-69.83756845094929
aF-69.86558095536374
aF-69.8070398824425
aF0.0
aa(lp474
F-69.53314711488571
aF-69.48886719998538
aF-69.51415188152127
aF-69.58794476898338
aF0.0
aa(lp475
F-69.14665934953217
aF-69.23589489203276
aF-69.25376222887036
aF-69.15211177254024
aF0.0
aa(lp476
F-69.33560801387502
aF-69.30206833463428
aF-69.34258579534269
aF-69.39746796760888
aF0.0
aa(lp477
F-69.45133116756854
aF-69.39337082385337
aF-69.42981525626038
aF-69.40941698701832
aF0.0
aa(lp478
F-69.27196811324752
aF-69.247372294191
aF-69.32092096850398
aF-69.27530680819416
aF0.0
aa(lp479
F-69.48555627980649
aF-69.43738605248673
aF-69.4402334622796
aF-69.49440785758655
aF0.0
aa(lp480
F0.0
aF0.0
aF0.0
aF0.0
aF0.0
aa(lp481
F0.0
aF0.0
aF0.0
aF0.0
aF0.0
aa(lp482
F-18.92303227562324
aF-18.93328745981698
aF-18.905743699992527
aF-18.843099305450792
aF0.0
aa(lp483
F-19.086132905702375
aF-19.09700699114358
aF-19.106960246742485
aF-19.182078417307423
aF0.0
aa(lp484
F-19.515137254336185
aF-19.577739483264764
aF-19.559043502430562
aF-19.42571433736148
aF0.0
aa(lp485
F-19.55304357043869
aF-19.524185738203485
aF-19.502711255215083
aF-19.575331100548222
aF0.0
aa(lp486
F-19.704730309616945
aF-19.9500233125325
aF-19.95356405234917
aF-19.919068355796796
aF0.0
aa(lp487
F-21.15757703431068
aF-21.175124428488697
aF-21.341740092323523
aF-21.182331175347034
aF0.0
aa(lp488
F-23.087471497568014
aF-22.979862206517947
aF-23.235469723140067
aF-23.228818246366796
aF0.0
aa(lp489
F-26.685958057161812
aF-27.02717631019851
aF-27.226254484904935
aF-27.491902378140068
aF0.0
aa(lp490
F-21.795476974308333
aF-21.432313365126756
aF-21.479234894488364
aF-21.509629833062725
aF0.0
aa(lp491
F-16.97334513674111
aF-16.942784066587375
aF-16.736346779424103
aF-16.918484161943244
aF0.0
aa(lp492
F-14.27441892650158
aF-14.502526770871043
aF-14.420557858052161
aF-14.092109918132703
aF0.0
aa(lp493
F-11.630901870337457
aF-11.120708240456198
aF-11.612593061355458
aF-11.544707066223365
aF0.0
aa(lp494
F-9.266292318183595
aF-8.494692861310076
aF-9.287265955031552
aF-9.036963042614683
aF0.0
aa(lp495
F-6.441095006406917
aF-6.037247837310174
aF-5.746761515645231
aF-5.5076221034750334
aF0.0
aa(lp496
F-3.851992189938266
aF-3.742072483864301
aF-3.5855916942337127
aF-3.6127715834942142
aF0.0
aa(lp497
F0.0
aF0.0
aF0.0
aF0.0
aF0.0
aa(lp498
F-66.62635188438337
aF-66.79537042554409
aF-66.76264954946093
aF-66.73279660900764
aF0.0
aa(lp499
F-67.31740348662592
aF-67.22511611605444
aF-67.35086488038932
aF-67.21531143102743
aF0.0
aa(lp500
F-68.04123596907145
aF-68.05060726618365
aF-67.96339063236154
aF-68.26740142451405
aF0.0
aa(lp501
F-68.35458427030419
aF-68.35332565646544
aF-68.33521154913923
aF-68.37977634116564
aF0.0
aa(lp502
F-68.52521310592633
aF-68.44482993466627
aF-68.54607647672663
aF-68.47841905225596
aF0.0
aa(lp503
F-68.9864042441608
aF-68.9576902438771
aF-69.05968526864983
aF-69.04586574824555
aF0.0
aa(lp504
F-69.60580883692734
aF-69.57437404349591
aF-69.66893399299892
aF-69.52653317925001
aF0.0
aa(lp505
F-70.71462468623788
aF-70.69404343490045
aF-70.78198300177063
aF-70.60051589049658
aF0.0
aa(lp506
F-70.05575756769478
aF-70.12015241147883
aF-70.17750713656832
aF-70.12791183289687
aF0.0
aa(lp507
F-69.58392189394881
aF-69.71253587069816
aF-69.73641950769277
aF-69.65511371590826
aF0.0
aa(lp508
F-69.62886941601201
aF-69.78129159003096
aF-69.73321605954034
aF-69.68911729936313
aF0.0
aa(lp509
F-69.55129668985532
aF-69.68989312453834
aF-69.63298129042822
aF-69.70998642538854
aF0.0
aa(lp510
F-69.46135577018259
aF-69.47453887822965
aF-69.39845598445493
aF-69.47944552699849
aF0.0
aa(lp511
F-69.51956796479577
aF-69.32548613781657
aF-69.39213867862709
aF-69.37620648026079
aF0.0
aa(lp512
F0.0
aF0.0
aF0.0
aF0.0
aF0.0
aa(lp513
F0.0
aF0.0
aF0.0
aF0.0
aF0.0
aa(lp514
F0.0
aF0.0
aF0.0
aF0.0
aF0.0
aa(lp515
F0.0
aF0.0
aF0.0
aF0.0
aF0.0
aa(lp516
F0.0
aF0.0
aF0.0
aF0.0
aF0.0
aa(lp517
F0.0
aF0.0
aF0.0
aF0.0
aF0.0
aa(lp518
F0.0
aF0.0
aF0.0
aF0.0
aF0.0
aa(lp519
F0.0
aF0.0
aF0.0
aF0.0
aF0.0
aa(lp520
F0.0
aF0.0
aF0.0
aF0.0
aF0.0
aa(lp521
F-40.55528351129481
aF-44.60896644487344
aF-44.85466845525717
aF-44.72676957982136
aF0.0
aa(lp522
F0.0
aF0.0
aF0.0
aF0.0
aF0.0
aa(lp523
F0.0
aF0.0
aF0.0
aF0.0
aF0.0
aa(lp524
F0.0
aF0.0
aF0.0
aF0.0
aF0.0
aa(lp525
F0.0
aF0.0
aF0.0
aF0.0
aF0.0
aa(lp526
F0.0
aF0.0
aF0.0
aF0.0
aF0.0
aa(lp527
F0.0
aF0.0
aF0.0
aF0.0
aF0.0
aa(lp528
F0.0
aF0.0
aF0.0
aF0.0
aF0.0
aa(lp529
F0.0
aF0.0
aF0.0
aF0.0
aF0.0
aa(lp530
F0.0
aF0.0
aF0.0
aF0.0
aF0.0
aa(lp531
F0.0
aF0.0
aF0.0
aF0.0
aF0.0
aa(lp532
F0.0
aF0.0
aF0.0
aF0.0
aF0.0
aa(lp533
F0.0
aF0.0
aF0.0
aF0.0
aF0.0
aa(lp534
F0.0
aF0.0
aF0.0
aF0.0
aF0.0
aa(lp535
F0.0
aF0.0
aF0.0
aF0.0
aF0.0
aa(lp536
F0.0
aF0.0
aF0.0
aF0.0
aF0.0
aa(lp537
F-72.18404299321907
aF-72.16747151978547
aF-72.03002476454526
aF-72.13337245345689
aF0.0
aa(lp538
F0.0
aF0.0
aF0.0
aF0.0
aF0.0
aa(lp539
F0.0
aF0.0
aF0.0
aF0.0
aF0.0
aa(lp540
F0.0
aF0.0
aF0.0
aF0.0
aF0.0
aa(lp541
F0.0
aF0.0
aF0.0
aF0.0
aF0.0
aa(lp542
F0.0
aF0.0
aF0.0
aF0.0
aF0.0
aa(lp543
F0.0
aF0.0
aF0.0
aF0.0
aF0.0
aa(lp544
F0.0
aF0.0
aF0.0
aF0.0
aF0.0
aa(lp545
F0.0
aF0.0
aF0.0
aF0.0
aF0.0
aa(lp546
F-74.59249808316005
aF-74.59621981503699
aF-74.58511229655615
aF-74.70138851355199
aF0.0
aa(lp547
F-74.05137872342239
aF-74.02695090801443
aF-74.05592616658384
aF-74.07074141722302
aF0.0
aa(lp548
F-73.85826280889283
aF-73.97183048318625
aF-73.83206993397562
aF-73.84689854934115
aF0.0
aa(lp549
F-72.1601362757365
aF-72.20384839034486
aF-72.21049821857662
aF-72.17538816527141
aF0.0
aa(lp550
F-70.12872667429713
aF-70.41454399122635
aF-70.26268231023975
aF-70.41716205658025
aF0.0
aa(lp551
F-68.20046540678392
aF-68.43354737408504
aF-68.45056186322287
aF-68.40128379407165
aF0.0
aa(lp552
F-66.63218255941932
aF-64.72720867083795
aF-66.04433133076662
aF-65.96989911050304
aF0.0
aa(lp553
F-59.70763042167388
aF-60.579460796358035
aF-60.23677988653589
aF-60.18931096980441
aF0.0
aa(lp554
F-65.1418746966453
aF-65.01172939543194
aF-64.80244052527559
aF-65.11245095423195
aF0.0
aa(lp555
F-68.45827863247443
aF-68.29121958939494
aF-68.50814915181572
aF-68.59293716223132
aF0.0
aa(lp556
F-70.73662776221808
aF-70.51669409123329
aF-71.1251790847712
aF-70.65547230099531
aF0.0
aa(lp557
F-71.92881319303784
aF-71.95908211710595
aF-72.13934904710128
aF-71.91936825936061
aF0.0
aa(lp558
F-72.78349888381607
aF-72.89931597601276
aF-72.96416502960463
aF-72.8284020872454
aF0.0
aa(lp559
F-73.21819620345725
aF-73.26543897199903
aF-73.23766369433702
aF-73.30871262082974
aF0.0
aa(lp560
F-73.46867402244447
aF-73.4205481600728
aF-73.51433176143382
aF-73.51819568812095
aF0.0
aa(lp561
F0.0
aF0.0
aF0.0
aF0.0
aF0.0
aa(lp562
F-74.43985035851716
aF-74.27371864733489
aF-74.34973151788735
aF-74.33483411829053
aF0.0
aa(lp563
F-74.21229670181562
aF-74.30648372519335
aF-74.22409823043706
aF-74.2484778355626
aF0.0
aa(lp564
F-74.0299888932048
aF-74.09675241229216
aF-74.04775000845851
aF-74.19704943083747
aF0.0
aa(lp565
F-73.93272939146235
aF-73.99739454947743
aF-74.02826429326562
aF-73.97269039558891
aF0.0
aa(lp566
F-73.60169840346079
aF-73.64447741349554
aF-73.62018152791684
aF-73.57214398522244
aF0.0
aa(lp567
F-72.96102618796453
aF-73.06216607298805
aF-72.90019934579591
aF-72.89773161115804
aF0.0
aa(lp568
F-72.4412463887453
aF-72.36173557799691
aF-72.3200923133771
aF-72.3132139711535
aF0.0
aa(lp569
F-72.27094684880342
aF-72.32740656597748
aF-72.29428171436376
aF-72.33810268189623
aF0.0
aa(lp570
F-72.34186260584343
aF-72.27516149962119
aF-72.38674355408874
aF-72.31253604412098
aF0.0
aa(lp571
F-72.34520454683661
aF-72.45482956952465
aF-72.31938006888224
aF-72.40632565776872
aF0.0
aa(lp572
F-72.32688880847796
aF-72.25306836184886
aF-72.26844961157602
aF-72.3252945365085
aF0.0
aa(lp573
F-72.24663227682768
aF-72.30585413567927
aF-72.27559242336254
aF-72.30970830798353
aF0.0
aa(lp574
F-72.24640704957213
aF-72.37668489577243
aF-72.25726028301516
aF-72.33049901574944
aF0.0
aa(lp575
F-72.29024447258011
aF-72.34202390214766
aF-72.40489775753072
aF-72.3118208153091
aF0.0
aa(lp576
F0.0
aF0.0
aF0.0
aF0.0
aF0.0
aa(lp577
F0.0
aF0.0
aF0.0
aF0.0
aF0.0
aa(lp578
F-74.17253229435454
aF-74.22609288582656
aF-74.1958455456095
aF-74.16139576295453
aF0.0
aa(lp579
F-73.76145999199318
aF-73.79293700544694
aF-73.79996421176833
aF-73.77267912615625
aF0.0
aa(lp580
F-73.74207585565118
aF-73.73390450225729
aF-73.77285398612597
aF-73.68408076631786
aF0.0
aa(lp581
F-72.65715606531197
aF-72.6996674528577
aF-72.52349932024232
aF-72.75642662862715
aF0.0
aa(lp582
F-71.43721400407664
aF-71.330205663063
aF-71.19893187728925
aF-71.3991091113576
aF0.0
aa(lp583
F-69.421550144841
aF-69.72956347152963
aF-69.68862750761757
aF-69.68582219630126
aF0.0
aa(lp584
F-68.40764676997438
aF-68.41866228747149
aF-68.64111312548816
aF-68.10624414458482
aF0.0
aa(lp585
F-66.09648371669998
aF-66.70276569448157
aF-66.75055683361835
aF-66.50155217984492
aF0.0
aa(lp586
F-67.63668056901513
aF-67.64067731135012
aF-67.81282990081138
aF-67.83882973767045
aF0.0
aa(lp587
F-69.42861606037377
aF-69.37442433712312
aF-69.28326523925853
aF-69.2990398976928
aF0.0
aa(lp588
F-70.8300652184003
aF-70.91054357565858
aF-70.88062141617142
aF-70.86692999429279
aF0.0
aa(lp589
F-72.01081585667195
aF-72.11297863168984
aF-72.04884612858795
aF-72.06147334817946
aF0.0
aa(lp590
F-72.73009307100254
aF-72.75418035261659
aF-72.74471019317802
aF-72.7447979400186
aF0.0
aa(lp591
F-72.94021190204889
aF-72.9710713025116
aF-72.91319405374838
aF-72.94399513057385
aF0.0
aa(lp592
F-73.14376468367485
aF-73.08955342164906
aF-73.08230657194696
aF-73.04223140884687
aF0.0
aa(lp593
F0.0
aF0.0
aF0.0
aF0.0
aF0.0
aa(lp594
F-74.23042334672427
aF-74.30090390306398
aF-74.27453314149274
aF-74.24864611466744
aF0.0
aa(lp595
F-74.12614712580191
aF-74.16748496533354
aF-74.11999685114108
aF-74.15860748958355
aF0.0
aa(lp596
F-74.2192083519436
aF-74.27043390216785
aF-74.28336652286413
aF-74.25649827527562
aF0.0
aa(lp597
F-74.09827957387026
aF-74.20350821617869
aF-74.14597487798987
aF-74.17845451144052
aF0.0
aa(lp598
F-73.80476770401658
aF-73.7973410884548
aF-73.88741756173766
aF-73.83775063222018
aF0.0
aa(lp599
F-73.42540698727805
aF-73.46022381051083
aF-73.45500466656476
aF-73.46385075846027
aF0.0
aa(lp600
F-72.64913602181915
aF-72.84689544252043
aF-72.6574839859463
aF-72.713344193008
aF0.0
aa(lp601
F-72.3850084847133
aF-72.3960443318841
aF-72.40787623718548
aF-72.34997257444594
aF0.0
aa(lp602
F-72.33813989307271
aF-72.3596349715616
aF-72.37043648334691
aF-72.41767917379306
aF0.0
aa(lp603
F-72.38630747809665
aF-72.3594144432981
aF-72.31206247510491
aF-72.34624828736158
aF0.0
aa(lp604
F-72.31194297070765
aF-72.31223973380843
aF-72.27697479433932
aF-72.34526671396115
aF0.0
aa(lp605
F-72.20633318052982
aF-72.23888955821054
aF-72.24791859074155
aF-72.28653199685357
aF0.0
aa(lp606
F-72.22204058793905
aF-72.24714590651257
aF-72.28064616491208
aF-72.20124740565005
aF0.0
aa(lp607
F-72.23736504588882
aF-72.30018089257717
aF-72.35875643755597
aF-72.22964542994895
aF0.0
aa(lp608
F0.0
aF0.0
aF0.0
aF0.0
aF0.0
aa(lp609
F0.0
aF0.0
aF0.0
aF0.0
aF0.0
aa(lp610
F-74.01176546519183
aF-74.24092343619327
aF-73.9956361270366
aF-74.04923459038265
aF0.0
aa(lp611
F-74.19280460125009
aF-74.12454473251589
aF-74.17333187934142
aF-74.14340888861555
aF0.0
aa(lp612
F-74.10580306510909
aF-74.09053138628468
aF-74.10547506717712
aF-74.13919894455105
aF0.0
aa(lp613
F-73.48045182597613
aF-73.49179149236805
aF-73.57634770755179
aF-73.53519485251744
aF0.0
aa(lp614
F-72.39021054389727
aF-72.32536086841125
aF-72.33593736958642
aF-72.21598640851491
aF0.0
aa(lp615
F-70.85958504199508
aF-71.14607770935022
aF-71.13395243153107
aF-71.00287239381178
aF0.0
aa(lp616
F-70.11656183151266
aF-70.28615560043826
aF-70.2556692749892
aF-70.08081600542863
aF0.0
aa(lp617
F-69.27151852352829
aF-69.377727991672
aF-69.37440399481494
aF-69.62400003181163
aF0.0
aa(lp618
F-69.50604747573608
aF-69.38526482178844
aF-69.3597082118793
aF-69.4509972748723
aF0.0
aa(lp619
F-70.11551651378844
aF-69.98181683414286
aF-70.0896332751298
aF-69.92696956253299
aF0.0
aa(lp620
F-71.1700890720888
aF-71.25523867460477
aF-71.17235886236205
aF-71.14092150072833
aF0.0
aa(lp621
F-72.1101542158386
aF-72.14214254174668
aF-72.1376052518765
aF-72.08465868135866
aF0.0
aa(lp622
F-72.57823676576945
aF-72.6153531714643
aF-72.68280484469501
aF-72.64482731829366
aF0.0
aa(lp623
F-72.62659316467622
aF-72.73617419130503
aF-72.6255717726761
aF-72.58387469307114
aF0.0
aa(lp624
F-72.67189959250928
aF-72.6296069183815
aF-72.68966127888942
aF-72.73408636349677
aF0.0
aa(lp625
F0.0
aF0.0
aF0.0
aF0.0
aF0.0
aa(lp626
F-73.93874227385572
aF-73.97700404638022
aF-73.91628283360065
aF-73.8816133962097
aF0.0
aa(lp627
F-73.6810169685255
aF-73.72524259875213
aF-73.73408156919814
aF-73.71432693002505
aF0.0
aa(lp628
F-74.20268279773829
aF-74.20286992721621
aF-74.28454199041282
aF-74.22751039723927
aF0.0
aa(lp629
F-74.12393968854256
aF-74.06286768096959
aF-74.19584087037397
aF-74.13961554030531
aF0.0
aa(lp630
F-73.69270343894496
aF-73.63316771572472
aF-73.71955897384598
aF-73.64793388653626
aF0.0
aa(lp631
F-73.41395800252533
aF-73.40742037064231
aF-73.40227297307045
aF-73.43728027735585
aF0.0
aa(lp632
F-72.83015258606504
aF-72.77624360702207
aF-72.6773193739089
aF-72.66910531234862
aF0.0
aa(lp633
F-72.38744012846257
aF-72.40363816073177
aF-72.3358654585537
aF-72.39444412711364
aF0.0
aa(lp634
F-72.29500076268343
aF-72.3741605382043
aF-72.32962826598211
aF-72.37740727898014
aF0.0
aa(lp635
F-72.28843303574963
aF-72.31800419012274
aF-72.34705808248496
aF-72.35654663140302
aF0.0
aa(lp636
F-72.23420151211305
aF-72.32275727207893
aF-72.28053652140791
aF-72.28090369870662
aF0.0
aa(lp637
F-72.17923139912597
aF-72.25669555314754
aF-72.2014873570215
aF-72.2240865295107
aF0.0
aa(lp638
F-72.17498790818686
aF-72.1984454860158
aF-72.18346529346243
aF-72.24859681044406
aF0.0
aa(lp639
F-72.11165766819221
aF-72.21004288252212
aF-72.1558543469088
aF-72.19243514150818
aF0.0
aa(lp640
F0.0
aF0.0
aF0.0
aF0.0
aF0.0
aa(lp641
F0.0
aF0.0
aF0.0
aF0.0
aF0.0
aa(lp642
F-74.02089342964388
aF-74.15535494770127
aF-74.07363086851886
aF-74.03979411528901
aF0.0
aa(lp643
F-74.11223650481749
aF-74.13347364328956
aF-74.1668802883074
aF-74.0924822440602
aF0.0
aa(lp644
F-74.0388282144942
aF-74.05412563150917
aF-74.06322766248338
aF-74.0728279627205
aF0.0
aa(lp645
F-73.79430484328469
aF-73.77580436006374
aF-73.78199233601447
aF-73.76335225985656
aF0.0
aa(lp646
F-72.91729029733219
aF-72.89477311039488
aF-72.91417526592208
aF-72.83861820686616
aF0.0
aa(lp647
F-72.07570522515488
aF-72.0998273086763
aF-72.21040269332164
aF-72.37882562718212
aF0.0
aa(lp648
F-71.56642585942124
aF-71.5081041080454
aF-71.57614377161539
aF-71.50680585616728
aF0.0
aa(lp649
F-70.64882248095654
aF-70.70891747459397
aF-70.79181670315404
aF-70.75560957708987
aF0.0
aa(lp650
F-70.65496578191208
aF-70.66561206559491
aF-70.78760937549013
aF-70.67509621909609
aF0.0
aa(lp651
F-71.25277529453189
aF-71.14460452290258
aF-71.26767320264405
aF-71.18331719754487
aF0.0
aa(lp652
F-71.7766115125292
aF-71.71314543539356
aF-71.78534496573215
aF-71.8074353175816
aF0.0
aa(lp653
F-72.32081203862931
aF-72.22360042504539
aF-72.27053404011708
aF-72.34622358235153
aF0.0
aa(lp654
F-72.50402523796245
aF-72.50770584292437
aF-72.43542171513967
aF-72.48186674386807
aF0.0
aa(lp655
F-72.63951287655942
aF-72.65986397687789
aF-72.68416267902333
aF-72.69111447818605
aF0.0
aa(lp656
F-72.67374474755616
aF-72.77462505406982
aF-72.62781869091691
aF-72.68880672099256
aF0.0
aa(lp657
F0.0
aF0.0
aF0.0
aF0.0
aF0.0
aa(lp658
F-73.63797678395613
aF-73.61445606458135
aF-73.7290377540269
aF-73.60309449923076
aF0.0
aa(lp659
F-73.5253677143169
aF-73.57076767349172
aF-73.48165733385673
aF-73.49384272729286
aF0.0
aa(lp660
F-73.82548562805796
aF-73.77253235512018
aF-73.85188040563861
aF-73.8196682120467
aF0.0
aa(lp661
F-73.745360096651
aF-73.68707195970677
aF-73.7694468897912
aF-73.70454621041932
aF0.0
aa(lp662
F-73.55227915641044
aF-73.59588876437577
aF-73.5114920855589
aF-73.50043982740985
aF0.0
aa(lp663
F-73.19683804116495
aF-73.12618535238786
aF-73.19297437507474
aF-73.1902660651333
aF0.0
aa(lp664
F-72.62830801894208
aF-72.62428320614649
aF-72.58561391438337
aF-72.64802010549921
aF0.0
aa(lp665
F-72.26935289100149
aF-72.34252620799187
aF-72.29383163327509
aF-72.27865488737037
aF0.0
aa(lp666
F-72.28877494383516
aF-72.36758620255122
aF-72.37171770327954
aF-72.2878527100988
aF0.0
aa(lp667
F-72.32969357793269
aF-72.32848046017904
aF-72.30672059070753
aF-72.26939264213804
aF0.0
aa(lp668
F-72.2156198640011
aF-72.21351328222356
aF-72.26233111766813
aF-72.25673018333076
aF0.0
aa(lp669
F-72.1716300684088
aF-72.12600929003608
aF-72.15466651803987
aF-72.2311702498511
aF0.0
aa(lp670
F-72.16720879668233
aF-72.18831454256639
aF-72.17221315501925
aF-72.14337302759823
aF0.0
aa(lp671
F-72.13908665479535
aF-72.08065942827044
aF-72.2980382087405
aF-72.12153344308572
aF0.0
aa(lp672
F0.0
aF0.0
aF0.0
aF0.0
aF0.0
aa(lp673
F0.0
aF0.0
aF0.0
aF0.0
aF0.0
aa(lp674
F-74.0952055654005
aF-74.00607461299033
aF-74.03678798864968
aF-73.9425804059194
aF0.0
aa(lp675
F-74.18088250363081
aF-74.18049814754505
aF-74.10209820561185
aF-74.13049498807307
aF0.0
aa(lp676
F-74.09408586256012
aF-74.16568037319995
aF-74.178805484573
aF-74.15328166258125
aF0.0
aa(lp677
F-73.90250130136515
aF-73.8332729735779
aF-73.92254905896125
aF-73.93854432389266
aF0.0
aa(lp678
F-73.35458794164987
aF-73.40840451330322
aF-73.45261020644156
aF-73.40030361616353
aF0.0
aa(lp679
F-72.84890116572672
aF-72.88070133103967
aF-72.83537014816186
aF-72.96262064869128
aF0.0
aa(lp680
F-72.431518661072
aF-72.49736702707499
aF-72.45119712664874
aF-72.40480802138856
aF0.0
aa(lp681
F-71.90940361963489
aF-72.01306551677833
aF-71.8491069400871
aF-71.9831963797777
aF0.0
aa(lp682
F-71.59333208063175
aF-71.60826634710752
aF-71.75277727429753
aF-71.61814843372103
aF0.0
aa(lp683
F-71.89386000191917
aF-71.97796555982885
aF-71.95986675197322
aF-71.98993705510615
aF0.0
aa(lp684
F-72.29121937377346
aF-72.35186695015739
aF-72.36746664785608
aF-72.30293257719485
aF0.0
aa(lp685
F-72.55472773691721
aF-72.55289170487143
aF-72.62533114135972
aF-72.57934665770561
aF0.0
aa(lp686
F-72.53439432172692
aF-72.47879540709923
aF-72.47620099571586
aF-72.51551670139602
aF0.0
aa(lp687
F-72.82524940422705
aF-72.88068316534826
aF-72.78966006639523
aF-72.7763395455411
aF0.0
aa(lp688
F-72.92904507761087
aF-72.87187787997665
aF-72.80277446336483
aF-72.80417392550335
aF0.0
aa(lp689
F0.0
aF0.0
aF0.0
aF0.0
aF0.0
aa(lp690
F-73.03505920361822
aF-73.05523804967699
aF-72.97688190543333
aF-73.06262839665774
aF0.0
aa(lp691
F-73.18337056624726
aF-73.26752992845267
aF-73.16696945507556
aF-73.14294708595067
aF0.0
aa(lp692
F-73.50137563595591
aF-73.42701983572609
aF-73.43905247103369
aF-73.54472979701762
aF0.0
aa(lp693
F-73.63685111684404
aF-73.61846322210194
aF-73.58858552876161
aF-73.55609307587243
aF0.0
aa(lp694
F-73.3941818448315
aF-73.36576985998461
aF-73.39826330418683
aF-73.45573489195363
aF0.0
aa(lp695
F-72.9975813866323
aF-72.99240210789128
aF-73.09549249051263
aF-72.96447125613575
aF0.0
aa(lp696
F-72.50981641720622
aF-72.44315251994453
aF-72.45498114072849
aF-72.53685984687321
aF0.0
aa(lp697
F-72.22407362723436
aF-72.23184031386467
aF-72.31546912718235
aF-72.30846107780646
aF0.0
aa(lp698
F-72.40200933508731
aF-72.44072541351507
aF-72.35715163845417
aF-72.39223484963814
aF0.0
aa(lp699
F-72.29752712892505
aF-72.33107629760667
aF-72.31644959289727
aF-72.37734943220916
aF0.0
aa(lp700
F-72.1673615773111
aF-72.18593637668263
aF-72.11633813206777
aF-72.22134822112358
aF0.0
aa(lp701
F-72.17930714286688
aF-72.09655710496502
aF-72.23652196354946
aF-72.07693711860011
aF0.0
aa(lp702
F-72.2139277423179
aF-72.22925573730714
aF-72.1601433207729
aF-72.19558981081718
aF0.0
aa(lp703
F-72.05404636206323
aF-72.03552410571226
aF-71.99364599127148
aF-72.13571849065616
aF0.0
aa(lp704
F0.0
aF0.0
aF0.0
aF0.0
aF0.0
aa(lp705
F0.0
aF0.0
aF0.0
aF0.0
aF0.0
aa(lp706
F-73.88879757791942
aF-73.9661433817016
aF-73.9278360490474
aF-73.91842533224991
aF0.0
aa(lp707
F-73.98241177742261
aF-74.02676797607486
aF-73.9272369679881
aF-73.93193827935163
aF0.0
aa(lp708
F-73.9588548204839
aF-73.87883085154989
aF-73.85521849208888
aF-73.91435936661442
aF0.0
aa(lp709
F-73.86760915894386
aF-73.82664270887537
aF-73.76517468760969
aF-73.81696449298451
aF0.0
aa(lp710
F-73.6409099272833
aF-73.68485827140942
aF-73.62214725259479
aF-73.63199669401473
aF0.0
aa(lp711
F-73.38054334282577
aF-73.4247988077444
aF-73.33654801794651
aF-73.38301482013102
aF0.0
aa(lp712
F-73.0008985906699
aF-73.05862548016886
aF-73.05645328535579
aF-72.98546097446554
aF0.0
aa(lp713
F-72.59415118128176
aF-72.57518079670845
aF-72.6054931741798
aF-72.61152603610148
aF0.0
aa(lp714
F-72.52332397921012
aF-72.41530848059156
aF-72.49135680210217
aF-72.45375954192664
aF0.0
aa(lp715
F-72.47326146338277
aF-72.46928807320546
aF-72.44741590173587
aF-72.36264344667467
aF0.0
aa(lp716
F-72.66459763107845
aF-72.73489995942542
aF-72.62311693622176
aF-72.65087874867606
aF0.0
aa(lp717
F-72.80126558619139
aF-72.74202637203462
aF-72.76115879271708
aF-72.76997907330066
aF0.0
aa(lp718
F-72.72790163466001
aF-72.6866246246341
aF-72.72272777927711
aF-72.79568190787369
aF0.0
aa(lp719
F-73.00582375804137
aF-73.0200548995089
aF-73.06443342541573
aF-72.98962809302118
aF0.0
aa(lp720
F-73.09188513114954
aF-73.06590992236559
aF-73.04165728858818
aF-73.04433638672381
aF0.0
aa(lp721
F0.0
aF0.0
aF0.0
aF0.0
aF0.0
aa(lp722
F-72.66817890068755
aF-72.75033970013979
aF-72.77375619379487
aF-72.75459893518465
aF0.0
aa(lp723
F-72.9399805545951
aF-72.85070662657604
aF-72.89615209197135
aF-72.8717876467777
aF0.0
aa(lp724
F-73.10872783484419
aF-73.07825395618043
aF-73.0399823851816
aF-73.0896971024033
aF0.0
aa(lp725
F-73.29594390819626
aF-73.28560096065307
aF-73.22300696362538
aF-73.18663399279964
aF0.0
aa(lp726
F-73.18604608423261
aF-73.13630646356665
aF-73.0853187250444
aF-73.10853848904522
aF0.0
aa(lp727
F-72.97045602203188
aF-72.96784020951092
aF-72.96860554559908
aF-73.0031012894685
aF0.0
aa(lp728
F-72.09659426187869
aF-72.23805985662717
aF-72.2058365686309
aF-72.18285375940184
aF0.0
aa(lp729
F-72.07272084208356
aF-72.09926153797592
aF-72.14860901481148
aF-72.08284288054577
aF0.0
aa(lp730
F-72.34517026666377
aF-72.41519805642568
aF-72.43209003103149
aF-72.35113749395221
aF0.0
aa(lp731
F-72.34195516422655
aF-72.42257949299923
aF-72.37008285445907
aF-72.37971888842623
aF0.0
aa(lp732
F-72.22512900159842
aF-72.20376856630087
aF-72.2215166624201
aF-72.23236837344254
aF0.0
aa(lp733
F-72.27065020306327
aF-72.24333727119136
aF-72.3084163548211
aF-72.25395450460896
aF0.0
aa(lp734
F-72.14396674506804
aF-72.11230400837175
aF-72.0753770161071
aF-72.15164307345509
aF0.0
aa(lp735
F-71.81645185349159
aF-71.79777790680484
aF-71.78292839727077
aF-71.88789402058089
aF0.0
aa(lp736
F0.0
aF0.0
aF0.0
aF0.0
aF0.0
aa(lp737
F0.0
aF0.0
aF0.0
aF0.0
aF0.0
aa(lp738
F-73.50999137736636
aF-73.64254609283586
aF-73.6289230784976
aF-73.53888736990905
aF0.0
aa(lp739
F-73.81556499145822
aF-73.7419360969298
aF-73.70279879731312
aF-73.7223994821351
aF0.0
aa(lp740
F-73.59978687295589
aF-73.66024990752054
aF-73.61520710479147
aF-73.56842192500282
aF0.0
aa(lp741
F-73.50561216936269
aF-73.45511979569177
aF-73.53546915513887
aF-73.47454702650118
aF0.0
aa(lp742
F-73.46662171477593
aF-73.48761574360194
aF-73.43236090595153
aF-73.39432028307309
aF0.0
aa(lp743
F-73.54328108397362
aF-73.57496173947031
aF-73.58334736638751
aF-73.5556804790123
aF0.0
aa(lp744
F-73.41700506080628
aF-73.3828655262261
aF-73.41826383989837
aF-73.44191449519978
aF0.0
aa(lp745
F-73.22566296561466
aF-73.21839971570806
aF-73.31933585710593
aF-73.213678310995
aF0.0
aa(lp746
F-72.98940734475136
aF-72.91191439289564
aF-72.94970873772442
aF-73.03847451534068
aF0.0
aa(lp747
F-72.8585437893948
aF-72.87869944340831
aF-72.86531350475369
aF-72.79730253993097
aF0.0
aa(lp748
F-72.88672774968505
aF-72.80207043139235
aF-72.859044922248
aF-72.80406083915565
aF0.0
aa(lp749
F-72.86235955611188
aF-72.88076107154885
aF-72.85847393258808
aF-72.87392346069973
aF0.0
aa(lp750
F-72.98834420337397
aF-72.91720969539186
aF-72.92442266345239
aF-72.95212125063844
aF0.0
aa(lp751
F-72.96469526812447
aF-72.99622758529037
aF-72.94679383017991
aF-72.97219055326775
aF0.0
aa(lp752
F-72.96547925470897
aF-72.95959392575425
aF-73.02008213460134
aF-72.90702414807704
aF0.0
aa(lp753
F0.0
aF0.0
aF0.0
aF0.0
aF0.0
aa(lp754
F-72.80865663324424
aF-72.81776099467271
aF-72.84517210451989
aF-72.81770568725078
aF0.0
aa(lp755
F-72.86532084099319
aF-72.95080858081967
aF-72.87603947228105
aF-72.88148729645036
aF0.0
aa(lp756
F-73.05723762954482
aF-72.99350961210705
aF-73.05928631564691
aF-73.07487189407368
aF0.0
aa(lp757
F-73.14320063345868
aF-73.15587107160817
aF-73.1205090243601
aF-73.17932558411411
aF0.0
aa(lp758
F-72.94226633215278
aF-72.91401741654717
aF-72.88417214414078
aF-72.90960781111207
aF0.0
aa(lp759
F-72.90517004655997
aF-72.8505585739518
aF-72.87917963452476
aF-72.9452012217141
aF0.0
aa(lp760
F-72.3275649092375
aF-72.22532853311776
aF-72.3661937279698
aF-72.34639504556615
aF0.0
aa(lp761
F-71.85339460812817
aF-71.94292244429064
aF-71.8838464524417
aF-71.94907694769984
aF0.0
aa(lp762
F-72.09713045385345
aF-72.21432277686516
aF-72.20983344763205
aF-72.14564020225768
aF0.0
aa(lp763
F-72.28405308915754
aF-72.29852818558338
aF-72.43457760682136
aF-72.25052168416087
aF0.0
aa(lp764
F-72.27939601555103
aF-72.27410878590851
aF-72.34879947553871
aF-72.34361184881986
aF0.0
aa(lp765
F-72.29637587510383
aF-72.26310287576842
aF-72.31793385452902
aF-72.36425343666325
aF0.0
aa(lp766
F-72.19359465176504
aF-72.16814068365552
aF-72.24129186614286
aF-72.25717184438183
aF0.0
aa(lp767
F-72.24870711541962
aF-72.23299977324868
aF-72.13425496547815
aF-72.1367549922036
aF0.0
aa(lp768
F0.0
aF0.0
aF0.0
aF0.0
aF0.0
aa(lp769
F0.0
aF0.0
aF0.0
aF0.0
aF0.0
aa(lp770
F-73.32159499274805
aF-73.43848326016038
aF-73.32125197444572
aF-73.37941786921186
aF0.0
aa(lp771
F-73.4036738345808
aF-73.45448648657413
aF-73.49016578236497
aF-73.38393601769631
aF0.0
aa(lp772
F-73.60067381109431
aF-73.57828629651901
aF-73.53585691253252
aF-73.61672257316728
aF0.0
aa(lp773
F-73.59175900090565
aF-73.66377763157901
aF-73.60866329650418
aF-73.67252489657291
aF0.0
aa(lp774
F-73.49098352704536
aF-73.47487905034912
aF-73.56057848354543
aF-73.45285444257628
aF0.0
aa(lp775
F-73.5874242973736
aF-73.66872302091787
aF-73.65908793118186
aF-73.60170764592077
aF0.0
aa(lp776
F-73.57209502043132
aF-73.62021805692433
aF-73.57342842510596
aF-73.5552538279123
aF0.0
aa(lp777
F-73.52950892264823
aF-73.5252007397993
aF-73.61553998627154
aF-73.58927465248927
aF0.0
aa(lp778
F-73.54326560509415
aF-73.45985464927283
aF-73.4813532240283
aF-73.55514700616881
aF0.0
aa(lp779
F-73.26549430202817
aF-73.2450295675767
aF-73.22954801071425
aF-73.28520279372984
aF0.0
aa(lp780
F-72.96695199682517
aF-72.83894545077581
aF-72.85215782453918
aF-72.90746351678456
aF0.0
aa(lp781
F-72.91685086242418
aF-72.99348561249118
aF-72.94565313888305
aF-72.91895155429951
aF0.0
aa(lp782
F-72.95006450342035
aF-72.93133728904446
aF-72.99794381786847
aF-73.01069345834092
aF0.0
aa(lp783
F-72.93062403280332
aF-72.8933548681905
aF-72.97561763163138
aF-72.94784348212515
aF0.0
aa(lp784
F-72.91995922517549
aF-72.9273211394923
aF-72.93440204069016
aF-72.92717892679067
aF0.0
aa(lp785
F-72.85394947170496
aF-72.83657109965276
aF-72.89912999320447
aF-72.88684030054394
aF0.0
aa(lp786
F-72.86859934566746
aF-72.85995586290562
aF-72.92549787535033
aF-72.86630928134439
aF0.0
aa(lp787
F-72.92823913291768
aF-72.83476537098443
aF-72.87308627082916
aF-72.91268014957296
aF0.0
aa(lp788
F-72.88585781763274
aF-72.85880676418883
aF-72.94318723237302
aF-72.9410875253321
aF0.0
aa(lp789
F-73.04249016982607
aF-72.97225879615586
aF-72.97054006287188
aF-72.99934235376494
aF0.0
aa(lp790
F-72.9317354583141
aF-72.91013256104583
aF-72.94770091328496
aF-72.84800016269375
aF0.0
aa(lp791
F-72.87832071627724
aF-72.90056073250068
aF-72.87506803757785
aF-72.9070999332688
aF0.0
aa(lp792
F-72.55072051470435
aF-72.47907678159017
aF-72.4290198749451
aF-72.53778811021522
aF0.0
aa(lp793
F-72.18330333771516
aF-72.16962453732994
aF-72.22548433035115
aF-72.2097655757047
aF0.0
aa(lp794
F-72.22917504243061
aF-72.30650202989638
aF-72.22966231616145
aF-72.25582746746022
aF0.0
aa(lp795
F-72.319643045645
aF-72.24306831643553
aF-72.3139259681202
aF-72.29648062299735
aF0.0
aa(lp796
F-72.33149680716481
aF-72.25928404561454
aF-72.32659846000041
aF-72.34852841338588
aF0.0
aa(lp797
F-72.37115802410948
aF-72.28049940492276
aF-72.3416310605827
aF-72.28307523872735
aF0.0
aa(lp798
F-72.36058189366369
aF-72.32005025155219
aF-72.33166232778761
aF-72.33553334188166
aF0.0
aa(lp799
F-72.43576325978918
aF-72.29081909691534
aF-72.36275936494386
aF-72.32376363199135
aF0.0
aa(lp800
F0.0
aF0.0
aF0.0
aF0.0
aF0.0
aa(lp801
F0.0
aF0.0
aF0.0
aF0.0
aF0.0
aa(lp802
F-73.68604974137016
aF-73.62243890631467
aF-73.66636320856827
aF-73.6950767942628
aF0.0
aa(lp803
F-73.61840754953019
aF-73.57472965109113
aF-73.5189455527871
aF-73.55932599924171
aF0.0
aa(lp804
F-73.51261751537778
aF-73.55298543895846
aF-73.5946116559729
aF-73.5911198409635
aF0.0
aa(lp805
F-73.52207315049203
aF-73.52886976950263
aF-73.43024110803708
aF-73.50490623649576
aF0.0
aa(lp806
F-73.51374757129153
aF-73.52107039384798
aF-73.47850412911164
aF-73.50738792097138
aF0.0
aa(lp807
F-73.51673498652946
aF-73.59937901643039
aF-73.51143728219246
aF-73.58328491067722
aF0.0
aa(lp808
F-73.56847143750983
aF-73.62330263988416
aF-73.55758518900643
aF-73.59105885650126
aF0.0
aa(lp809
F-73.64159530537489
aF-73.5726133259152
aF-73.66039838442384
aF-73.65543362833542
aF0.0
aa(lp810
F-73.66532174325052
aF-73.60377094497504
aF-73.65099566699946
aF-73.58479900507027
aF0.0
aa(lp811
F-73.30433698586253
aF-73.3162838601166
aF-73.30589025061548
aF-73.35615825093781
aF0.0
aa(lp812
F-73.10351311078603
aF-73.08966228576928
aF-73.03202621741394
aF-73.08301673360704
aF0.0
aa(lp813
F-73.08488902229256
aF-73.0125092241348
aF-73.09671064555297
aF-73.10163707916142
aF0.0
aa(lp814
F-73.09884322095013
aF-73.0849594608134
aF-73.06240841221612
aF-73.15219591992965
aF0.0
aa(lp815
F-72.84211228958368
aF-72.89835374191104
aF-72.88352991645942
aF-72.91652850686361
aF0.0
aa(lp816
F-72.91402328612367
aF-72.91620889487109
aF-72.95225130358128
aF-72.9256203462493
aF0.0
aa(lp817
F0.0
aF0.0
aF0.0
aF0.0
aF0.0
aa(lp818
F-72.85946797548773
aF-72.9174576801338
aF-72.8718424480647
aF-73.00074715305193
aF0.0
aa(lp819
F-72.92408749709232
aF-72.86054992343853
aF-72.92554834474068
aF-72.89764921618745
aF0.0
aa(lp820
F-72.79263089027455
aF-72.83750558985696
aF-72.84603758137463
aF-72.82235373839517
aF0.0
aa(lp821
F-72.91399996287741
aF-72.94090382244038
aF-72.87059011067294
aF-72.93289177894675
aF0.0
aa(lp822
F-72.89308814708431
aF-72.85378629578037
aF-72.84650529555263
aF-72.84021014391679
aF0.0
aa(lp823
F-72.80246226295534
aF-72.7877084683608
aF-72.85378083310943
aF-72.9274146415454
aF0.0
aa(lp824
F-72.70147124671959
aF-72.72211885605459
aF-72.6845067270844
aF-72.67911710602243
aF0.0
aa(lp825
F-72.38005515234164
aF-72.36256325341202
aF-72.34556411885086
aF-72.36523653453465
aF0.0
aa(lp826
F-72.4368237212447
aF-72.37571882946673
aF-72.29444608730904
aF-72.33573098992352
aF0.0
aa(lp827
F-72.37138490142247
aF-72.31353040399667
aF-72.39572799329879
aF-72.40089428086395
aF0.0
aa(lp828
F-72.37544415451154
aF-72.39622010803487
aF-72.32150777303897
aF-72.4385165222779
aF0.0
aa(lp829
F-72.33316874563698
aF-72.34471730060393
aF-72.35577220913113
aF-72.37815998160863
aF0.0
aa(lp830
F-72.34531128631691
aF-72.3174027362518
aF-72.29257350655178
aF-72.34828216943889
aF0.0
aa(lp831
F-72.22185841041473
aF-72.28384320451596
aF-72.26349937260959
aF-72.31913219014339
aF0.0
aa(lp832
F0.0
aF0.0
aF0.0
aF0.0
aF0.0
aa(lp833
F0.0
aF0.0
aF0.0
aF0.0
aF0.0
aa(lp834
F-73.68476944755736
aF-73.71028831375546
aF-73.70828565920942
aF-73.68625172278831
aF0.0
aa(lp835
F-73.5804477813014
aF-73.54799195553754
aF-73.60030037704962
aF-73.53483868653976
aF0.0
aa(lp836
F-73.60247771621398
aF-73.58373483625054
aF-73.62923441212145
aF-73.52021446031577
aF0.0
aa(lp837
F-73.4770999692749
aF-73.55882949493027
aF-73.5148527094528
aF-73.5149808626133
aF0.0
aa(lp838
F-73.48407045005187
aF-73.51958736521192
aF-73.47186405444492
aF-73.49553490712702
aF0.0
aa(lp839
F-73.48419017318254
aF-73.53345199674982
aF-73.57152262096884
aF-73.51672929608733
aF0.0
aa(lp840
F-73.59446237234806
aF-73.61524761434566
aF-73.62675557708263
aF-73.57723800142539
aF0.0
aa(lp841
F-73.6787838690125
aF-73.72895732955439
aF-73.71694610496836
aF-73.64345380494463
aF0.0
aa(lp842
F-73.7012902413987
aF-73.7139157661694
aF-73.65067317534155
aF-73.67817896057824
aF0.0
aa(lp843
F-73.19763247447533
aF-73.3145710546491
aF-73.21527037285995
aF-73.27717579224135
aF0.0
aa(lp844
F-73.3002940288055
aF-73.25022801095787
aF-73.31878988874362
aF-73.33195310542023
aF0.0
aa(lp845
F-73.3985257838513
aF-73.38795111028385
aF-73.37721941197745
aF-73.42788620760642
aF0.0
aa(lp846
F-73.4584284985411
aF-73.34298799920013
aF-73.30738415584128
aF-73.28173059406609
aF0.0
aa(lp847
F-72.89204478269349
aF-72.97765869857278
aF-72.97878420364755
aF-72.9930650054217
aF0.0
aa(lp848
F-72.99628911510878
aF-72.93328796754385
aF-73.04845969053198
aF-72.90595304747977
aF0.0
aa(lp849
F0.0
aF0.0
aF0.0
aF0.0
aF0.0
aa(lp850
F-72.83095761379522
aF-72.87983555293235
aF-72.89666091103105
aF-72.94231840961841
aF0.0
aa(lp851
F-72.86700435108406
aF-72.89091251932449
aF-72.88538378505535
aF-72.88285320594657
aF0.0
aa(lp852
F-72.73725471742314
aF-72.71010830366865
aF-72.6313848959501
aF-72.67171106622739
aF0.0
aa(lp853
F-72.91398272585401
aF-72.87757769929917
aF-72.83090563728906
aF-72.85424982978734
aF0.0
aa(lp854
F-72.82093672106936
aF-72.81765788167013
aF-72.85125373576707
aF-72.87049987071882
aF0.0
aa(lp855
F-72.70541862731326
aF-72.62461065741655
aF-72.62144437440706
aF-72.67088717891531
aF0.0
aa(lp856
F-72.56516861021687
aF-72.56633235144524
aF-72.5939317284898
aF-72.53423845385365
aF0.0
aa(lp857
F-72.23673426479338
aF-72.29144295956918
aF-72.407674647215
aF-72.26107451290272
aF0.0
aa(lp858
F-72.35837738571166
aF-72.30591079574674
aF-72.29781529646577
aF-72.38272124684957
aF0.0
aa(lp859
F-72.32693079882537
aF-72.40791295897898
aF-72.40098691609474
aF-72.36253586310892
aF0.0
aa(lp860
F-72.44161290380994
aF-72.43957872915263
aF-72.39184245559726
aF-72.39264620744565
aF0.0
aa(lp861
F-72.42773848250489
aF-72.38116527112952
aF-72.38583382001464
aF-72.43838016974945
aF0.0
aa(lp862
F-72.26706478853981
aF-72.29161929330589
aF-72.34483225207724
aF-72.44607144623721
aF0.0
aa(lp863
F-72.2440352086558
aF-72.19642144023408
aF-72.15624080134032
aF-72.27628231851777
aF0.0
aa(lp864
F0.0
aF0.0
aF0.0
aF0.0
aF0.0
aa(lp865
F0.0
aF0.0
aF0.0
aF0.0
aF0.0
aa(lp866
F-73.40195859710902
aF-73.3235801448029
aF-73.47662212211902
aF-73.43735041626447
aF0.0
aa(lp867
F-73.63255709578996
aF-73.76318883477308
aF-73.56095287907127
aF-73.56669190030625
aF0.0
aa(lp868
F-73.41028595972365
aF-73.52976885258585
aF-73.45871822485176
aF-73.50177973929516
aF0.0
aa(lp869
F-73.47904540506077
aF-73.42584519307576
aF-73.45249137812102
aF-73.57793227315952
aF0.0
aa(lp870
F-73.47451648254335
aF-73.42637161240962
aF-73.46131102455102
aF-73.56425275380641
aF0.0
aa(lp871
F-73.47293138480137
aF-73.55309715244394
aF-73.46130271453791
aF-73.47417154231566
aF0.0
aa(lp872
F-73.59780627787352
aF-73.61916718576241
aF-73.5201413676332
aF-73.55866118866658
aF0.0
aa(lp873
F-73.72705572158405
aF-73.62301554014151
aF-73.72071778557203
aF-73.68398783393314
aF0.0
aa(lp874
F-73.74891513500647
aF-73.8176222802131
aF-73.75193680271641
aF-73.7724833406705
aF0.0
aa(lp875
F-73.35760599727921
aF-73.3491564342245
aF-73.29770781813279
aF-73.3222929701156
aF0.0
aa(lp876
F-73.21935061623134
aF-73.29011870649917
aF-73.22892694899201
aF-73.24213028904104
aF0.0
aa(lp877
F-73.38273297963556
aF-73.28584938094738
aF-73.29574962812318
aF-73.32807859810728
aF0.0
aa(lp878
F-73.16978319930158
aF-73.22606225245619
aF-73.20128691757962
aF-73.17421426814009
aF0.0
aa(lp879
F-72.93377217592008
aF-72.98409679148726
aF-72.93900470097628
aF-73.03959030479511
aF0.0
aa(lp880
F-72.97426622588355
aF-72.9708748742339
aF-73.15130037733631
aF-73.01765539190859
aF0.0
aa(lp881
F0.0
aF0.0
aF0.0
aF0.0
aF0.0
aa(lp882
F-72.89192274437168
aF-72.86994526387161
aF-72.92250494085478
aF-72.87117601273053
aF0.0
aa(lp883
F-73.0658218749404
aF-73.02102684607111
aF-72.94727778856814
aF-72.95619439492586
aF0.0
aa(lp884
F-72.89446039544336
aF-72.86087109303605
aF-72.94910488043288
aF-72.86397487909363
aF0.0
aa(lp885
F-72.71317030595245
aF-72.6514049298055
aF-72.69898938112578
aF-72.68275899533994
aF0.0
aa(lp886
F-72.71106647125079
aF-72.72105951621677
aF-72.65691885727219
aF-72.75971532246362
aF0.0
aa(lp887
F-72.47906683103868
aF-72.57372948873893
aF-72.55387769750128
aF-72.4979668300381
aF0.0
aa(lp888
F-72.73118049060238
aF-72.64856708768892
aF-72.71131302335715
aF-72.6406186215303
aF0.0
aa(lp889
F-72.43228448444664
aF-72.44790186438095
aF-72.45990264827662
aF-72.48177908232176
aF0.0
aa(lp890
F-72.37625337614165
aF-72.34096125543252
aF-72.3921815325276
aF-72.33315392497258
aF0.0
aa(lp891
F-72.36179167458796
aF-72.44049785801658
aF-72.38366811237583
aF-72.40547690750778
aF0.0
aa(lp892
F-72.35892389023228
aF-72.4572941842925
aF-72.4412161903266
aF-72.44552300096024
aF0.0
aa(lp893
F-72.4557894376114
aF-72.47204712683164
aF-72.37809641834606
aF-72.45128241337743
aF0.0
aa(lp894
F-72.23695643592049
aF-72.34264057431403
aF-72.25118070683573
aF-72.32269826963324
aF0.0
aa(lp895
F-72.29209918461775
aF-72.21718197707794
aF-72.36428834940182
aF-72.33004897903545
aF0.0
aa(lp896
F0.0
aF0.0
aF0.0
aF0.0
aF0.0
aa(lp897
F0.0
aF0.0
aF0.0
aF0.0
aF0.0
aa(lp898
F-73.80150902387693
aF-73.69820980674966
aF-73.83460330437646
aF-73.71163744350156
aF0.0
aa(lp899
F-73.69377526574986
aF-73.74034160487834
aF-73.7609114053465
aF-73.75686680340783
aF0.0
aa(lp900
F-73.416216236259
aF-73.38777638307323
aF-73.33066323245616
aF-73.32682318570014
aF0.0
aa(lp901
F-73.46701455044054
aF-73.43261901927545
aF-73.43123895320464
aF-73.39110709812788
aF0.0
aa(lp902
F-73.55461015744713
aF-73.54943828410437
aF-73.57718213607482
aF-73.53005623591326
aF0.0
aa(lp903
F-73.516789393309
aF-73.44359976741404
aF-73.5460166677436
aF-73.52650820823791
aF0.0
aa(lp904
F-73.61318340697159
aF-73.57509943000288
aF-73.66076508413933
aF-73.60809232249058
aF0.0
aa(lp905
F-73.81221524684774
aF-73.82464639293075
aF-73.9015650699744
aF-73.81887768346647
aF0.0
aa(lp906
F-73.84643603535757
aF-73.9519687295879
aF-73.81866670325495
aF-73.91618064398371
aF0.0
aa(lp907
F-73.49809006513213
aF-73.5844269791911
aF-73.53402277667429
aF-73.54654094029316
aF0.0
aa(lp908
F-73.18888997053602
aF-73.26645971578665
aF-73.19113663519657
aF-73.29440328386322
aF0.0
aa(lp909
F-73.15330741425697
aF-73.21622047748795
aF-73.14564943184337
aF-73.24009173951569
aF0.0
aa(lp910
F-73.10276776467555
aF-73.00397189921823
aF-73.10873804343119
aF-73.08409186432749
aF0.0
aa(lp911
F-72.9865428690621
aF-72.97710719177901
aF-72.90391206864928
aF-72.90042399288916
aF0.0
aa(lp912
F-72.89959063409417
aF-72.93884268258591
aF-72.96325451492214
aF-72.94384096526304
aF0.0
aa(lp913
F0.0
aF0.0
aF0.0
aF0.0
aF0.0
aa(lp914
F-72.78796151052751
aF-72.78323166298064
aF-72.81790710946247
aF-72.72475315320234
aF0.0
aa(lp915
F-72.93196232557634
aF-72.8940975352593
aF-72.88775638424127
aF-72.91968184941827
aF0.0
aa(lp916
F-72.87254643123514
aF-72.87367674638377
aF-72.91385018338973
aF-72.81214893308704
aF0.0
aa(lp917
F-72.58401211374607
aF-72.55164412925862
aF-72.64266300385864
aF-72.58166112216209
aF0.0
aa(lp918
F-72.73634815732532
aF-72.64040210347981
aF-72.63674338456825
aF-72.67760202327472
aF0.0
aa(lp919
F-72.53764067896459
aF-72.63724119129675
aF-72.48075033546881
aF-72.55172395222789
aF0.0
aa(lp920
F-72.72238540027917
aF-72.68390643585929
aF-72.72249897324905
aF-72.68349740432186
aF0.0
aa(lp921
F-72.68305270939295
aF-72.66826228242721
aF-72.70141657031745
aF-72.65917940270562
aF0.0
aa(lp922
F-72.4996377522318
aF-72.48603880659715
aF-72.4375019711369
aF-72.4551677256736
aF0.0
aa(lp923
F-72.21455872202564
aF-72.22129660309471
aF-72.25062433434368
aF-72.20189436414094
aF0.0
aa(lp924
F-72.21463204500493
aF-72.17510715580099
aF-72.19740255090464
aF-72.27481065559932
aF0.0
aa(lp925
F-72.38137291108411
aF-72.4105117831475
aF-72.47432829254163
aF-72.3998151328586
aF0.0
aa(lp926
F-72.32740147036357
aF-72.36715763671303
aF-72.33284967895716
aF-72.40867724508767
aF0.0
aa(lp927
F-72.18675288522857
aF-72.16535471248322
aF-72.1796563876969
aF-72.30260334636407
aF0.0
aa(lp928
F0.0
aF0.0
aF0.0
aF0.0
aF0.0
aa(lp929
F0.0
aF0.0
aF0.0
aF0.0
aF0.0
aa(lp930
F-73.92322901346529
aF-73.92602096237151
aF-74.00509949779537
aF-73.89144595412003
aF0.0
aa(lp931
F-73.56761483111536
aF-73.55473498593574
aF-73.53498829316219
aF-73.53685976414397
aF0.0
aa(lp932
F-73.40058975790731
aF-73.40790627860714
aF-73.33499651302279
aF-73.39472868531138
aF0.0
aa(lp933
F-73.4532361331969
aF-73.40687269821146
aF-73.34708210780501
aF-73.37140061510384
aF0.0
aa(lp934
F-73.5683814078183
aF-73.52491043751041
aF-73.49138234288637
aF-73.56162637003939
aF0.0
aa(lp935
F-73.63329877206132
aF-73.58611938293129
aF-73.65680194219107
aF-73.60860020393058
aF0.0
aa(lp936
F-73.56664144109502
aF-73.61663044556833
aF-73.5748198202644
aF-73.55029265389578
aF0.0
aa(lp937
F-73.78334151559511
aF-73.74802801784895
aF-73.81601025168473
aF-73.74906683742245
aF0.0
aa(lp938
F-73.83559794077706
aF-73.8868103029208
aF-73.92239451385893
aF-73.83767302471084
aF0.0
aa(lp939
F-73.8117594031309
aF-73.68348033941317
aF-73.69124854364388
aF-73.75458230320535
aF0.0
aa(lp940
F-73.54539832279428
aF-73.6099638262296
aF-73.55100838569386
aF-73.6562085795672
aF0.0
aa(lp941
F-73.38931503207412
aF-73.43384423711225
aF-73.46602720053605
aF-73.39606240365299
aF0.0
aa(lp942
F-73.35384321730238
aF-73.27878217671181
aF-73.30582183373734
aF-73.26948153508408
aF0.0
aa(lp943
F-73.15567181704671
aF-73.2007792480889
aF-73.19319301051145
aF-73.2075370540974
aF0.0
aa(lp944
F-72.99582446083315
aF-73.0509462365226
aF-73.02387786672757
aF-73.0305336913869
aF0.0
aa(lp945
F0.0
aF0.0
aF0.0
aF0.0
aF0.0
aa(lp946
F-72.47712379505094
aF-72.40489820810033
aF-72.41494133155477
aF-72.52876431291288
aF0.0
aa(lp947
F-72.23020031576698
aF-72.24870042460446
aF-72.19402912124993
aF-72.19230581428712
aF0.0
aa(lp948
F-72.4079969606073
aF-72.35063995090536
aF-72.37485311594048
aF-72.41848521454413
aF0.0
aa(lp949
F-72.33532909754847
aF-72.36566001303663
aF-72.26329874579342
aF-72.30327686692267
aF0.0
aa(lp950
F-72.32037725530733
aF-72.4186427656335
aF-72.36691917963849
aF-72.35439439934952
aF0.0
aa(lp951
F-72.61249508121138
aF-72.60685199707513
aF-72.57470859190677
aF-72.57243753925546
aF0.0
aa(lp952
F-72.7894587088459
aF-72.78791901672916
aF-72.73938976424624
aF-72.7603818227538
aF0.0
aa(lp953
F-72.6799934823266
aF-72.617719078846
aF-72.68522192179618
aF-72.65293079256335
aF0.0
aa(lp954
F-72.3989770668122
aF-72.44838545212573
aF-72.3876379995797
aF-72.43335677270959
aF0.0
aa(lp955
F-72.09218418898053
aF-71.97207790754302
aF-71.97317560100686
aF-72.02545978820264
aF0.0
aa(lp956
F-71.92570908177649
aF-71.94247496312713
aF-71.91111874746389
aF-71.99561318969799
aF0.0
aa(lp957
F-72.26436864566809
aF-72.16943792773122
aF-72.23019821338796
aF-72.25696355868797
aF0.0
aa(lp958
F-72.24841441026138
aF-72.26529987836226
aF-72.22877304184613
aF-72.28462479681649
aF0.0
aa(lp959
F-71.86001202513008
aF-71.80493137833777
aF-71.90618936813047
aF-71.95861704414237
aF0.0
aa(lp960
F0.0
aF0.0
aF0.0
aF0.0
aF0.0
aa(lp961
F0.0
aF0.0
aF0.0
aF0.0
aF0.0
aa(lp962
F-73.68801188833565
aF-73.80276392096178
aF-73.68170473253097
aF-73.7962535056711
aF0.0
aa(lp963
F-73.43662712124946
aF-73.45733304053189
aF-73.39576813163626
aF-73.43170836077374
aF0.0
aa(lp964
F-73.48590253170508
aF-73.35811972246552
aF-73.41073791713937
aF-73.52921650154391
aF0.0
aa(lp965
F-73.32719664578077
aF-73.34586806913632
aF-73.28442951487538
aF-73.29903575946804
aF0.0
aa(lp966
F-73.00965552915248
aF-72.87721918105517
aF-72.87424354640557
aF-72.93454287430353
aF0.0
aa(lp967
F-73.19948530567184
aF-73.11679520747022
aF-73.13069482731306
aF-73.13369426418228
aF0.0
aa(lp968
F-73.22445652622594
aF-73.33895250976074
aF-73.19634052825792
aF-73.2445054479285
aF0.0
aa(lp969
F-73.47930351372231
aF-73.42526431166479
aF-73.48714424207549
aF-73.61748900550435
aF0.0
aa(lp970
F-73.77447975939694
aF-73.74944536136748
aF-73.76837127051002
aF-73.75140492774142
aF0.0
aa(lp971
F-73.61759291866862
aF-73.66662950002993
aF-73.77383774688874
aF-73.567167552244
aF0.0
aa(lp972
F-73.5774460608242
aF-73.55726603463343
aF-73.56724325943412
aF-73.61860277066009
aF0.0
aa(lp973
F-73.53419607743221
aF-73.591622068925
aF-73.60112378906857
aF-73.62629716333049
aF0.0
aa(lp974
F-73.43190314104163
aF-73.42064548910831
aF-73.37978525294236
aF-73.30072388208346
aF0.0
aa(lp975
F-73.32334556736812
aF-73.31371251957967
aF-73.32308739528348
aF-73.32690697857173
aF0.0
aa(lp976
F-73.08408026379892
aF-73.20278296250113
aF-73.03983969196092
aF-73.03992334190377
aF0.0
aa(lp977
F0.0
aF0.0
aF0.0
aF0.0
aF0.0
aa(lp978
F-72.26272312751847
aF-72.1217505229039
aF-72.0853910373627
aF-72.29181545141599
aF0.0
aa(lp979
F-71.86982168136339
aF-71.99459217859939
aF-71.90654153569781
aF-71.92103257236076
aF0.0
aa(lp980
F-71.98199597004633
aF-71.95216747136843
aF-71.97886877233323
aF-72.05837330783692
aF0.0
aa(lp981
F-71.88284869835333
aF-71.92757427787129
aF-71.82528001426857
aF-71.91571972542529
aF0.0
aa(lp982
F-71.6108197507044
aF-71.81470040925443
aF-71.75435555851053
aF-71.7264265459111
aF0.0
aa(lp983
F-72.07701661999225
aF-72.11229827189669
aF-72.09329522830566
aF-72.11470266602136
aF0.0
aa(lp984
F-72.62729421778862
aF-72.55863098715848
aF-72.520869385624
aF-72.5719566267248
aF0.0
aa(lp985
F-72.50593709303365
aF-72.5573434986704
aF-72.52812440889728
aF-72.51963894981743
aF0.0
aa(lp986
F-72.20888900707708
aF-72.23822284582357
aF-72.20692902569184
aF-72.19183999668482
aF0.0
aa(lp987
F-71.83832939479609
aF-71.66892555315582
aF-71.76219369219211
aF-71.77954657202707
aF0.0
aa(lp988
F-71.69305410507718
aF-71.7204849121482
aF-71.62064452407989
aF-71.71206796425605
aF0.0
aa(lp989
F-71.69929471248817
aF-71.74268507342703
aF-71.79082450042154
aF-71.9081206829737
aF0.0
aa(lp990
F-71.77757963791166
aF-71.73598076306772
aF-71.65653114060315
aF-71.79758993798522
aF0.0
aa(lp991
F-71.4570359563614
aF-71.48820352483504
aF-71.36729989551787
aF-71.52685920559833
aF0.0
aa(lp992
F0.0
aF0.0
aF0.0
aF0.0
aF0.0
aa.