(lp0
(lp1
F0.0
aF0.0
aF0.0
aF0.0
aa(lp2
F0.0
aF0.0
aF0.0
aF0.0
aa(lp3
F0.0
aF0.0
aF0.0
aF0.0
aa(lp4
F0.0
aF0.0
aF0.0
aF0.0
aa(lp5
F0.0
aF0.0
aF0.0
aF0.0
aa(lp6
F0.0
aF0.0
aF0.0
aF0.0
aa(lp7
F0.0
aF0.0
aF0.0
aF0.0
aa(lp8
F-4.847284489670042
aF-4.794230114510153
aF-4.782321153130827
aF-4.836651540889903
aa(lp9
F-4.799976544434125
aF-4.715273966800341
aF-4.732394018065254
aF-4.728132860133562
aa(lp10
F-4.412269017575064
aF-4.213919561841079
aF-4.349074245935664
aF-4.28396120864911
aa(lp11
F-4.02073920383876
aF-3.8400594731884357
aF-4.17012006574238
aF-3.9367767303298074
aa(lp12
F0.0
aF0.0
aF0.0
aF0.0
aa(lp13
F0.0
aF0.0
aF0.0
aF0.0
aa(lp14
F-4.635599662232294
aF-4.562620059206877
aF-4.568183990812717
aF-4.562024188770928
aa(lp15
F-4.337241012876311
aF-4.196297193270768
aF-4.294955809161478
aF-4.183554686500498
aa(lp16
F-3.7884443878490943
aF-3.0199819446027076
aF-3.784484733545466
aF-3.6993529392998266
aa(lp17
F-3.479437736448265
aF-2.262228996101073
aF-3.438979680838602
aF-3.550041117781913
aa(lp18
F0.0
aF0.0
aF0.0
aF0.0
aa(lp19
F0.0
aF0.0
aF0.0
aF0.0
aa(lp20
F-4.255301011527536
aF-4.212946040412076
aF-4.438275291517523
aF-4.1803928175276095
aa(lp21
F-3.7441782073817413
aF-3.6805105625226626
aF-3.660544150630834
aF-2.9992299758048717
aa(lp22
F-3.335565066977384
aF-3.040165729399265
aF-3.276488924277235
aF-1.2340691987341474
aa(lp23
F-2.86594985023964
aF0.564867792760416
aF-2.8380771581055604
aF-2.8956845940178924
aa(lp24
F0.0
aF0.0
aF0.0
aF0.0
aa(lp25
F0.0
aF0.0
aF0.0
aF0.0
aa(lp26
F-4.413589883039755
aF-5.2320309040380835
aF-4.357617510392489
aF-5.370637154515913
aa(lp27
F-3.3011830892767495
aF-27.1
aF-3.3036818424859646
aF-2.8944033307194856
aa(lp28
F-2.6745918905382116
aF-4.178954604890615
aF-2.854819416186705
aF-0.5668333640179279
aa(lp29
F-2.292411014164456
aF2.609946883435144
aF-2.2084238732667214
aF-2.238224804114864
aa(lp30
F0.0
aF0.0
aF0.0
aF0.0
aa(lp31
F0.0
aF0.0
aF0.0
aF0.0
aa(lp32
F-3.8230201095713663
aF-3.7485559031403235
aF-3.7413659508287576
aF-34.39
aa(lp33
F0.0
aF0.0
aF0.0
aF0.0
aa(lp34
F-1.910358291460251
aF-1.860025434600172
aF-34.39
aF0.5476261631031355
aa(lp35
F-1.6976623130175614
aF3.680086323028963
aF-1.8674695090601112
aF-1.2567072261359147
aa(lp36
F0.0
aF0.0
aF0.0
aF0.0
aa(lp37
F0.0
aF0.0
aF0.0
aF0.0
aa(lp38
F-3.814742692461615
aF-27.1
aF-4.181432454250898
aF-3.2363214422667994
aa(lp39
F-34.39
aF-1.8426746806765586
aF-1.3149187088118839
aF-0.31687862708546366
aa(lp40
F-1.3275179741257452
aF2.7773534457477087
aF-2.2885785989248513
aF0.09346882570304615
aa(lp41
F-0.5319703861639865
aF4.922281193268189
aF-0.9568337926554964
aF-0.6900618388685424
aa(lp42
F0.0
aF0.0
aF0.0
aF0.0
aa(lp43
F0.0
aF0.0
aF0.0
aF0.0
aa(lp44
F0.0
aF0.0
aF0.0
aF0.0
aa(lp45
F-1.2881000000000002
aF-0.979714545388125
aF-19.0
aF1.655480887216768
aa(lp46
F-0.8893220446581299
aF0.21383565527418064
aF-0.8217161597959743
aF5.57986491902245
aa(lp47
F-0.18389831524307082
aF5.753641204682505
aF0.20515601492007407
aF0.6801969139972613
aa(lp48
F0.0
aF0.0
aF0.0
aF0.0
aa(lp49
F0.0
aF0.0
aF0.0
aF0.0
aa(lp50
F0.0
aF0.0
aF0.0
aF0.0
aa(lp51
F-0.6968614043580001
aF-0.7346208165750403
aF-10.0
aF3.4806348035175945
aa(lp52
F0.45052185266981337
aF-19.0
aF-0.19801115366999622
aF5.589970582429773
aa(lp53
F0.8270813022797262
aF7.8110423098874
aF1.2683128170734752
aF1.7167769718745898
aa(lp54
F0.0
aF0.0
aF0.0
aF0.0
aa(lp55
F0.0
aF0.0
aF0.0
aF0.0
aa(lp56
F-19.0
aF-2.3386925346818934
aF-2.5638293478011787
aF-1.7832207982303798
aa(lp57
F0.48798448048524284
aF-1.1224776002334171
aF-1.3606161289883345
aF-27.1
aa(lp58
F0.0
aF0.0
aF0.0
aF0.0
aa(lp59
F0.4788740292447642
aF9.99999999997853
aF-65.13215599
aF2.3377154227184445
aa(lp60
F0.0
aF0.0
aF0.0
aF0.0
aa(lp61
F0.0
aF0.0
aF0.0
aF0.0
aa(lp62
F-2.3279960578528547
aF-2.30625060881186
aF-2.3967132888968834
aF-2.288146162646162
aa(lp63
F-1.3903857929305683
aF-1.4598279702696688
aF-1.5594731940848585
aF-19.0
aa(lp64
F0.0
aF0.0
aF0.0
aF0.0
aa(lp65
F0.0
aF0.0
aF0.0
aF0.0
aa(lp66
F0.0
aF0.0
aF0.0
aF0.0
aa(lp67
F0.0
aF0.0
aF0.0
aF0.0
aa(lp68
F-1.982898304774366
aF-1.868135916363103
aF-2.005177328480395
aF-3.2050226779720217
aa(lp69
F-1.4882422325044131
aF-1.07128972783634
aF-1.645004947260241
aF-27.1
aa(lp70
F0.0
aF0.0
aF0.0
aF0.0
aa(lp71
F9.999999986724625
aF2.7755354285760307
aF-27.1
aF2.3405225895266915
aa(lp72
F0.0
aF0.0
aF0.0
aF0.0
aa(lp73
F0.0
aF0.0
aF0.0
aF0.0
aa(lp74
F-1.6898834094227126
aF-1.6573068961188844
aF-1.6444111551225857
aF-0.7021517004181113
aa(lp75
F-1.5077788203648608
aF1.6730600132201316
aF-1.4391173573009088
aF-2.051103474992915
aa(lp76
F-40.951
aF-0.026760220257779244
aF-0.6451041449140456
aF7.150414063174058
aa(lp77
F8.306106551160784
aF1.0636283523334114
aF0.4670445823803521
aF1.6470026797303794
aa(lp78
F0.0
aF0.0
aF0.0
aF0.0
aa(lp79
F0.0
aF0.0
aF0.0
aF0.0
aa(lp80
F-1.7246494894643698
aF-1.7192070042177114
aF-1.752633246013016
aF0.7949092187094143
aa(lp81
F-0.4433180327659084
aF-1.4846777104600535
aF-1.2170075135571918
aF4.289563395202512
aa(lp82
F-0.885542036513193
aF-0.965522806783193
aF-0.5136186312421348
aF5.771807679614794
aa(lp83
F6.600064707997426
aF0.5413650717508308
aF-0.1448204996582647
aF-0.3564147319893737
aa(lp84
F0.0
aF0.0
aF0.0
aF0.0
aa(lp85
F0.0
aF0.0
aF0.0
aF0.0
aa(lp86
F-1.9052862075532
aF-2.098982335980149
aF-2.1120591110444047
aF-2.015366483667605
aa(lp87
F1.3933955137192433
aF-1.879500887489271
aF-1.8030589931752514
aF-1.7104850107503873
aa(lp88
F1.4226621096438508
aF-1.390891050660377
aF-1.3181090816684902
aF-1.3335721674541026
aa(lp89
F5.1944384729647695
aF-0.9345975163110001
aF-0.966178020676615
aF-1.1104760456995362
aa(lp90
F0.0
aF0.0
aF0.0
aF0.0
aa(lp91
F0.0
aF0.0
aF0.0
aF0.0
aa(lp92
F-2.4563772293997643
aF-2.4754819206741288
aF-2.509225123956874
aF-2.182329057778225
aa(lp93
F-0.22064598723247453
aF-2.339148945524723
aF-2.2422353079687674
aF-2.1463477609243986
aa(lp94
F-1.6783140345332548
aF-1.8306387605207648
aF-1.7775912628376012
aF-0.9406231717909312
aa(lp95
F2.5085462311666222
aF-1.354344466196534
aF-1.6033642619314101
aF-1.5521121379914002
aa(lp96
F0.0
aF0.0
aF0.0
aF0.0
aa(lp97
F0.0
aF0.0
aF0.0
aF0.0
aa(lp98
F-2.8013493856780385
aF-2.9001846209398208
aF-2.884347355275998
aF-2.806439297609211
aa(lp99
F-2.3312196078702865
aF-2.7086144345567362
aF-2.588571086615035
aF-2.6024696557178117
aa(lp100
F0.0
aF0.0
aF0.0
aF0.0
aa(lp101
F-1.1368435838424054
aF-2.029350557851322
aF-2.1027290518835957
aF-2.0011400622494255
aa(lp102
F0.0
aF0.0
aF0.0
aF0.0
aa(lp103
F0.0
aF0.0
aF0.0
aF0.0
aa(lp104
F0.0
aF0.0
aF0.0
aF0.0
aa(lp105
F0.0
aF0.0
aF0.0
aF0.0
aa(lp106
F0.0
aF0.0
aF0.0
aF0.0
aa(lp107
F0.0
aF0.0
aF0.0
aF0.0
aa(lp108
F0.0
aF0.0
aF0.0
aF0.0
aa.